(lp0
Vhttp://www.tripadvisor.com/Attraction_Review-g55673-d7713492-Reviews-Coppell_Nature_Park-Coppell_Texas.html
p1
aVhttp://www.tripadvisor.com/Attraction_Review-g55673-d6413119-Reviews-High_Stone_Reflexology-Coppell_Texas.html
p2
aVhttp://www.tripadvisor.com/Attraction_Review-g55673-d181876-Reviews-Riverchase_Golf_Club-Coppell_Texas.html
p3
aVhttp://www.tripadvisor.com/Attraction_Review-g55673-d7981908-Reviews-Trinity_River_Kayak_Company-Coppell_Texas.html
p4
aVhttp://www.tripadvisor.com/Attraction_Review-g55673-d4554646-Reviews-Theatre_coppell-Coppell_Texas.html
p5
aVhttp://www.tripadvisor.com/Attraction_Review-g55673-d11811109-Reviews-Urban_Air_Trampoline_Park_Coppell-Coppell_Texas.html
p6
aVhttp://www.tripadvisor.com/Attraction_Review-g55673-d8364527-Reviews-The_Garden_Experience_Wellness_Spa-Coppell_Texas.html
p7
aVhttp://www.tripadvisor.com/Attraction_Review-g33015-d127320-Reviews-Mission_San_Gabriel_Archangel-San_Gabriel_California.html
p8
aVhttp://www.tripadvisor.com/Attraction_Review-g33015-d3400611-Reviews-San_Gabriel_Mission_Playhouse-San_Gabriel_California.html
p9
aVhttp://www.tripadvisor.com/Attraction_Review-g33015-d8130254-Reviews-XRoom-San_Gabriel_California.html
p10
aVhttp://www.tripadvisor.com/Attraction_Review-g33015-d9850185-Reviews-Ramona_Museum_of_California_History-San_Gabriel_California.html
p11
aVhttp://www.tripadvisor.com/Attraction_Review-g33015-d8123646-Reviews-Happy_Massage_Spa-San_Gabriel_California.html
p12
aVhttp://www.tripadvisor.com/Attraction_Review-g33015-d11913612-Reviews-BeautyBar-San_Gabriel_California.html
p13
aVhttp://www.tripadvisor.com/Attraction_Review-g41614-d659020-Reviews-Mount_Tom_State_Reservation-Holyoke_Massachusetts.html
p14
aVhttp://www.tripadvisor.com/Attraction_Review-g41614-d3514461-Reviews-Holyoke_Children_s_Museum-Holyoke_Massachusetts.html
p15
aVhttp://www.tripadvisor.com/Attraction_Review-g41614-d2008339-Reviews-Dinosaur_Footprints-Holyoke_Massachusetts.html
p16
aVhttp://www.tripadvisor.com/Attraction_Review-g41614-d8097953-Reviews-Holyoke_Mall-Holyoke_Massachusetts.html
p17
aVhttp://www.tripadvisor.com/Attraction_Review-g41614-d584639-Reviews-Mount_Holyoke-Holyoke_Massachusetts.html
p18
aVhttp://www.tripadvisor.com/Attraction_Review-g41614-d285565-Reviews-Wistariahurst_Museum-Holyoke_Massachusetts.html
p19
aVhttp://www.tripadvisor.com/Attraction_Review-g41614-d4725332-Reviews-Holyoke_Heritage_State_Park-Holyoke_Massachusetts.html
p20
aVhttp://www.tripadvisor.com/Attraction_Review-g41614-d8073640-Reviews-Whiting_Street_Reservoir-Holyoke_Massachusetts.html
p21
aVhttp://www.tripadvisor.com/Attraction_Review-g41614-d218286-Reviews-Volleyball_Hall_of_Fame-Holyoke_Massachusetts.html
p22
aVhttp://www.tripadvisor.com/Attraction_Review-g41614-d10340789-Reviews-Ashley_Reservoir-Holyoke_Massachusetts.html
p23
aVhttp://www.tripadvisor.com/Attraction_Review-g41614-d2008369-Reviews-Little_Tom_Mountain-Holyoke_Massachusetts.html
p24
aVhttp://www.tripadvisor.com/Attraction_Review-g41614-d3224174-Reviews-Mountain_Park-Holyoke_Massachusetts.html
p25
aVhttp://www.tripadvisor.com/Attraction_Review-g41614-d11773231-Reviews-DementedFX-Holyoke_Massachusetts.html
p26
aVhttp://www.tripadvisor.com/Attraction_Review-g41614-d10645976-Reviews-Billy_Beez-Holyoke_Massachusetts.html
p27
aVhttp://www.tripadvisor.com/Attraction_Review-g41614-d3916296-Reviews-Fun_Time_Lanes-Holyoke_Massachusetts.html
p28
aVhttp://www.tripadvisor.com/Attraction_Review-g41614-d8853855-Reviews-Gateway_city_Live-Holyoke_Massachusetts.html
p29
aVhttp://www.tripadvisor.com/Attraction_Review-g41614-d2008366-Reviews-Land_of_Providence-Holyoke_Massachusetts.html
p30
aVhttp://www.tripadvisor.com/Attraction_Review-g31441-d877831-Reviews-Crystal_Bridges_Museum_of_American_Art-Bentonville_Arkansas.html
p31
aVhttp://www.tripadvisor.com/Attraction_Review-g31441-d2287075-Reviews-Museum_of_Native_American_History-Bentonville_Arkansas.html
p32
aVhttp://www.tripadvisor.com/Attraction_Review-g31441-d2249272-Reviews-The_Walmart_Museum-Bentonville_Arkansas.html
p33
aVhttp://www.tripadvisor.com/Attraction_Review-g31441-d8518534-Reviews-Amazeum-Bentonville_Arkansas.html
p34
aVhttp://www.tripadvisor.com/Attraction_Review-g31441-d8046427-Reviews-21c_Museum-Bentonville_Arkansas.html
p35
aVhttp://www.tripadvisor.com/Attraction_Review-g31441-d10500821-Reviews-Bentonville_Town_Square-Bentonville_Arkansas.html
p36
aVhttp://www.tripadvisor.com/Attraction_Review-g31441-d6638788-Reviews-The_Buckyball-Bentonville_Arkansas.html
p37
aVhttp://www.tripadvisor.com/Attraction_Review-g31441-d3609807-Reviews-Compton_Gardens_and_Conference_Center-Bentonville_Arkansas.html
p38
aVhttp://www.tripadvisor.com/Attraction_Review-g31441-d299861-Reviews-The_Peel_Mansion_Museum_Heritage_Gardens-Bentonville_Arkansas.html
p39
aVhttp://www.tripadvisor.com/Attraction_Review-g31441-d4587860-Reviews-Lawrence_Plaza_Ice_Rink_and_Splash_Park-Bentonville_Arkansas.html
p40
aVhttp://www.tripadvisor.com/Attraction_Review-g31441-d4440803-Reviews-Slaughter_Pen_Hollow_Multi_Use_Trail_System-Bentonville_Arkansas.html
p41
aVhttp://www.tripadvisor.com/Attraction_Review-g31441-d7119091-Reviews-Bentonville_Convention_Visitors_Bureau-Bentonville_Arkansas.html
p42
aVhttp://www.tripadvisor.com/Attraction_Review-g31441-d10500105-Reviews-Orchards_Park-Bentonville_Arkansas.html
p43
aVhttp://www.tripadvisor.com/Attraction_Review-g30530-d1630414-Reviews-Frank_Lloyd_Wright_s_Rosenbaum_House-Florence_Alabama.html
p44
aVhttp://www.tripadvisor.com/Attraction_Review-g30530-d2204415-Reviews-University_of_North_Alabama-Florence_Alabama.html
p45
aVhttp://www.tripadvisor.com/Attraction_Review-g30530-d3428708-Reviews-Deibert_Park-Florence_Alabama.html
p46
aVhttp://www.tripadvisor.com/Attraction_Review-g30530-d270590-Reviews-W_C_Handy_Birthplace_Museum_Library-Florence_Alabama.html
p47
aVhttp://www.tripadvisor.com/Attraction_Review-g30530-d7645161-Reviews-Wichahpi_Commemorative_Stone_Wall-Florence_Alabama.html
p48
aVhttp://www.tripadvisor.com/Attraction_Review-g30530-d3428699-Reviews-McFarland_Park-Florence_Alabama.html
p49
aVhttp://www.tripadvisor.com/Attraction_Review-g30530-d1637761-Reviews-Pope_s_Tavern-Florence_Alabama.html
p50
aVhttp://www.tripadvisor.com/Attraction_Review-g30530-d2388231-Reviews-River_Heritage_Park-Florence_Alabama.html
p51
aVhttp://www.tripadvisor.com/Attraction_Review-g30530-d5887960-Reviews-Pickwick_Lake-Florence_Alabama.html
p52
aVhttp://www.tripadvisor.com/Attraction_Review-g30530-d10518447-Reviews-Singing_River_Brewing_Co-Florence_Alabama.html
p53
aVhttp://www.tripadvisor.com/Attraction_Review-g30530-d3428745-Reviews-Indian_Mound_Museum-Florence_Alabama.html
p54
aVhttp://www.tripadvisor.com/Attraction_Review-g30530-d3428680-Reviews-Children_s_Museum_of_the_Shoals-Florence_Alabama.html
p55
aVhttp://www.tripadvisor.com/Attraction_Review-g30530-d3428713-Reviews-Kennedy_Douglass_Center_for_the_Arts-Florence_Alabama.html
p56
aVhttp://www.tripadvisor.com/Attraction_Review-g30530-d10665707-Reviews-Wilson_Park-Florence_Alabama.html
p57
aVhttp://www.tripadvisor.com/Attraction_Review-g30530-d3447114-Reviews-Larimore_Home-Florence_Alabama.html
p58
aVhttp://www.tripadvisor.com/Attraction_Review-g30530-d3428710-Reviews-Key_Cave_National_Wildlife_Refuge-Florence_Alabama.html
p59
aVhttp://www.tripadvisor.com/Attraction_Review-g9743413-d10044900-Reviews-Jump_Jump_Premium_Kids_Indoor_Playground-Peachtree_Corners_Georgia.html
p60
aVhttp://www.tripadvisor.com/Attraction_Review-g9743413-d6750918-Reviews-Peachtree_Growler_Company-Peachtree_Corners_Georgia.html
p61
aVhttp://www.tripadvisor.com/Attraction_Review-g54914-d5608030-Reviews-Brentwood_Library-Brentwood_Tennessee.html
p62
aVhttp://www.tripadvisor.com/Attraction_Review-g54914-d4154874-Reviews-Brentwood_Jewelery_Gifts-Brentwood_Tennessee.html
p63
aVhttp://www.tripadvisor.com/Attraction_Review-g54914-d10501495-Reviews-Above_All_Extreme_Air_Sports-Brentwood_Tennessee.html
p64
aVhttp://www.tripadvisor.com/Attraction_Review-g54914-d10767130-Reviews-Crockett_Park-Brentwood_Tennessee.html
p65
aVhttp://www.tripadvisor.com/Attraction_Review-g54914-d10183232-Reviews-Dyer_Observatory-Brentwood_Tennessee.html
p66
aVhttp://www.tripadvisor.com/Attraction_Review-g54914-d2492096-Reviews-The_Snooty_Fox-Brentwood_Tennessee.html
p67
aVhttp://www.tripadvisor.com/Attraction_Review-g54914-d10727082-Reviews-Vignette-Brentwood_Tennessee.html
p68
aVhttp://www.tripadvisor.com/Attraction_Review-g54914-d10498408-Reviews-White_Rose_Gallery-Brentwood_Tennessee.html
p69
aVhttp://www.tripadvisor.com/Attraction_Review-g54914-d10003109-Reviews-Brentwood_Skate_Center-Brentwood_Tennessee.html
p70
aVhttp://www.tripadvisor.com/Attraction_Review-g54914-d8066703-Reviews-Massage_Envy_Spa_Brentwood_North-Brentwood_Tennessee.html
p71
aVhttp://www.tripadvisor.com/Attraction_Review-g54914-d12120191-Reviews-Monkey_Joe_s_Cool_Springs-Brentwood_Tennessee.html
p72
aVhttp://www.tripadvisor.com/Attraction_Review-g54914-d4547623-Reviews-The_Porch_Bar-Brentwood_Tennessee.html
p73
aVhttp://www.tripadvisor.com/Attraction_Review-g54914-d12144950-Reviews-Towne_Centre_Theatre-Brentwood_Tennessee.html
p74
aVhttp://www.tripadvisor.com/Attraction_Review-g54914-d12048727-Reviews-Owl_s_Hill_Nature_Sanctuary-Brentwood_Tennessee.html
p75
aVhttp://www.tripadvisor.com/Attraction_Review-g54914-d8870045-Reviews-Pinot_s_Palette-Brentwood_Tennessee.html
p76
aVhttp://www.tripadvisor.com/Attraction_Review-g54914-d8043063-Reviews-Music_City_Leather-Brentwood_Tennessee.html
p77
aVhttp://www.tripadvisor.com/Attraction_Review-g45095-d146792-Reviews-Museum_of_the_Rockies-Bozeman_Montana.html
p78
aVhttp://www.tripadvisor.com/Attraction_Review-g45095-d2527453-Reviews-Downtown_Bozeman-Bozeman_Montana.html
p79
aVhttp://www.tripadvisor.com/Attraction_Review-g45095-d481531-Reviews-American_Computer_Museum-Bozeman_Montana.html
p80
aVhttp://www.tripadvisor.com/Attraction_Review-g45095-d3244199-Reviews-Palisade_Falls-Bozeman_Montana.html
p81
aVhttp://www.tripadvisor.com/Attraction_Review-g45095-d274073-Reviews-Bridger_Bowl-Bozeman_Montana.html
p82
aVhttp://www.tripadvisor.com/Attraction_Review-g45095-d2157062-Reviews-Montana_Grizzly_Encounter-Bozeman_Montana.html
p83
aVhttp://www.tripadvisor.com/Attraction_Review-g45095-d267839-Reviews-Gallatin_Canyon-Bozeman_Montana.html
p84
aVhttp://www.tripadvisor.com/Attraction_Review-g45095-d126654-Reviews-Gallatin_River-Bozeman_Montana.html
p85
aVhttp://www.tripadvisor.com/Attraction_Review-g45095-d8743005-Reviews-Gallatin_History_Museum-Bozeman_Montana.html
p86
aVhttp://www.tripadvisor.com/Attraction_Review-g45095-d9606020-Reviews-Bozeman_Public_Library-Bozeman_Montana.html
p87
aVhttp://www.tripadvisor.com/Attraction_Review-g45095-d481532-Reviews-Emerson_Cultural_Center-Bozeman_Montana.html
p88
aVhttp://www.tripadvisor.com/Attraction_Review-g45095-d145886-Reviews-Bohart_Ranch-Bozeman_Montana.html
p89
aVhttp://www.tripadvisor.com/Attraction_Review-g45095-d7108333-Reviews-Ellen_Theatre-Bozeman_Montana.html
p90
aVhttp://www.tripadvisor.com/Attraction_Review-g45095-d8524444-Reviews-Children_s_Museum_of_Bozeman-Bozeman_Montana.html
p91
aVhttp://www.tripadvisor.com/Attraction_Review-g45095-d10213522-Reviews-Bozeman_Spirits_Distillery-Bozeman_Montana.html
p92
aVhttp://www.tripadvisor.com/Attraction_Review-g45095-d5483621-Reviews-Gallatin_County_Regional_Park-Bozeman_Montana.html
p93
aVhttp://www.tripadvisor.com/Attraction_Review-g45095-d10049259-Reviews-East_Gallatin_Recreation_Area_Park_Bozeman_Beach-Bozeman_Montana.html
p94
aVhttp://www.tripadvisor.com/Attraction_Review-g45095-d10713538-Reviews-Grotto_Falls_Trail-Bozeman_Montana.html
p95
aVhttp://www.tripadvisor.com/Attraction_Review-g45095-d8453259-Reviews-Middle_Cottonwood_Trailhead-Bozeman_Montana.html
p96
aVhttp://www.tripadvisor.com/Attraction_Review-g45095-d4700730-Reviews-Gallatin_Valley_Mall-Bozeman_Montana.html
p97
aVhttp://www.tripadvisor.com/Attraction_Review-g45095-d7323313-Reviews-Verge_Theater-Bozeman_Montana.html
p98
aVhttp://www.tripadvisor.com/Attraction_Review-g60133-d282947-Reviews-New_Berlin_Hills_Golf_Course-New_Berlin_Wisconsin.html
p99
aVhttp://www.tripadvisor.com/Attraction_Review-g60133-d6367438-Reviews-Helium_Trampoline_Park-New_Berlin_Wisconsin.html
p100
aVhttp://www.tripadvisor.com/Attraction_Review-g60133-d4556569-Reviews-Moorland_Road_Golf_Center-New_Berlin_Wisconsin.html
p101
aVhttp://www.tripadvisor.com/Attraction_Review-g60133-d7246546-Reviews-Kids_in_Motion-New_Berlin_Wisconsin.html
p102
aVhttp://www.tripadvisor.com/Attraction_Review-g60133-d5842497-Reviews-Chumley_s_Pub-New_Berlin_Wisconsin.html
p103
aVhttp://www.tripadvisor.com/Attraction_Review-g60133-d6199035-Reviews-Cleveland_Pub_Grill-New_Berlin_Wisconsin.html
p104
aVhttp://www.tripadvisor.com/Attraction_Review-g60133-d8761315-Reviews-Creative_Art_Wine_Studio-New_Berlin_Wisconsin.html
p105
aVhttp://www.tripadvisor.com/Attraction_Review-g60133-d7291374-Reviews-The_Big_Backyard-New_Berlin_Wisconsin.html
p106
aVhttp://www.tripadvisor.com/Attraction_Review-g60133-d6197596-Reviews-Haybalers_Saloon-New_Berlin_Wisconsin.html
p107
aVhttp://www.tripadvisor.com/Attraction_Review-g60133-d5841703-Reviews-Nickel_s_Pub-New_Berlin_Wisconsin.html
p108
aVhttp://www.tripadvisor.com/Attraction_Review-g54250-d106844-Reviews-Crowfield_Golf_Country_Club-Goose_Creek_South_Carolina.html
p109
aVhttp://www.tripadvisor.com/Attraction_Review-g54250-d5843862-Reviews-Sapphire_s-Goose_Creek_South_Carolina.html
p110
aVhttp://www.tripadvisor.com/Attraction_Review-g54250-d5845565-Reviews-JR_s_Pub-Goose_Creek_South_Carolina.html
p111
aVhttp://www.tripadvisor.com/Attraction_Review-g54250-d5829054-Reviews-Crazy_D_s_Food_and_Spirits-Goose_Creek_South_Carolina.html
p112
aVhttp://www.tripadvisor.com/Attraction_Review-g54250-d7074486-Reviews-In_Touch_Massage_Bodywork-Goose_Creek_South_Carolina.html
p113
aVhttp://www.tripadvisor.com/Attraction_Review-g54250-d6706999-Reviews-Quality_Time_Outdoors-Goose_Creek_South_Carolina.html
p114
aVhttp://www.tripadvisor.com/Attraction_Review-g54250-d4674898-Reviews-Triple_Hook_Fishing_Charters-Goose_Creek_South_Carolina.html
p115
aVhttp://www.tripadvisor.com/Attraction_Review-g56014-d106119-Reviews-Texas_Prison_Museum-Huntsville_Texas.html
p116
aVhttp://www.tripadvisor.com/Attraction_Review-g56014-d1027614-Reviews-Sam_Houston_Statue-Huntsville_Texas.html
p117
aVhttp://www.tripadvisor.com/Attraction_Review-g56014-d140093-Reviews-Huntsville_State_Park-Huntsville_Texas.html
p118
aVhttp://www.tripadvisor.com/Attraction_Review-g56014-d6463288-Reviews-Texan_Scuba_Inc-Huntsville_Texas.html
p119
aVhttp://www.tripadvisor.com/Attraction_Review-g56014-d560458-Reviews-Sam_Houston_Memorial_Museum-Huntsville_Texas.html
p120
aVhttp://www.tripadvisor.com/Attraction_Review-g56014-d2281832-Reviews-The_Blue_Lagoon-Huntsville_Texas.html
p121
aVhttp://www.tripadvisor.com/Attraction_Review-g56014-d7103639-Reviews-Oakwood_Cemetery-Huntsville_Texas.html
p122
aVhttp://www.tripadvisor.com/Attraction_Review-g56014-d2614642-Reviews-H_E_A_R_T_S_Veterans_Museum_of_Texas-Huntsville_Texas.html
p123
aVhttp://www.tripadvisor.com/Attraction_Review-g56014-d6114932-Reviews-Town_Theatre-Huntsville_Texas.html
p124
aVhttp://www.tripadvisor.com/Attraction_Review-g56014-d6864026-Reviews-Froggy_Wines-Huntsville_Texas.html
p125
aVhttp://www.tripadvisor.com/Attraction_Review-g56014-d5842435-Reviews-Smokin_Jozee_s-Huntsville_Texas.html
p126
aVhttp://www.tripadvisor.com/Attraction_Review-g56014-d11621835-Reviews-Martha_Chapel_Cemetery-Huntsville_Texas.html
p127
aVhttp://www.tripadvisor.com/Attraction_Review-g56014-d11514744-Reviews-A_Nitsch_in_Time-Huntsville_Texas.html
p128
aVhttp://www.tripadvisor.com/Attraction_Review-g56014-d5840789-Reviews-The_Stardust_Room-Huntsville_Texas.html
p129
aVhttp://www.tripadvisor.com/Attraction_Review-g56014-d6528636-Reviews-Huntsville_Lanes-Huntsville_Texas.html
p130
aVhttp://www.tripadvisor.com/Attraction_Review-g56014-d11624198-Reviews-Uptown_Vintage-Huntsville_Texas.html
p131
aVhttp://www.tripadvisor.com/Attraction_Review-g56014-d5832997-Reviews-The_Jolly_Fox-Huntsville_Texas.html
p132
aVhttp://www.tripadvisor.com/Attraction_Review-g56014-d10148005-Reviews-2E_Stables-Huntsville_Texas.html
p133
aVhttp://www.tripadvisor.com/Attraction_Review-g56014-d8658303-Reviews-Shenanigans_and_Confettis_Beach_Club-Huntsville_Texas.html
p134
aVhttp://www.tripadvisor.com/Attraction_Review-g56014-d5844093-Reviews-Epic_Lounge-Huntsville_Texas.html
p135
aVhttp://www.tripadvisor.com/Attraction_Review-g31324-d1869751-Reviews-Fain_Park-Prescott_Valley_Arizona.html
p136
aVhttp://www.tripadvisor.com/Attraction_Review-g31324-d1874975-Reviews-Harkins_Theatre-Prescott_Valley_Arizona.html
p137
aVhttp://www.tripadvisor.com/Attraction_Review-g31324-d611002-Reviews-StoneRidge_Golf_Course-Prescott_Valley_Arizona.html
p138
aVhttp://www.tripadvisor.com/Attraction_Review-g31324-d2194837-Reviews-Prescott_Valley_Event_Center-Prescott_Valley_Arizona.html
p139
aVhttp://www.tripadvisor.com/Attraction_Review-g31324-d8441745-Reviews-Iron_King_Trail-Prescott_Valley_Arizona.html
p140
aVhttp://www.tripadvisor.com/Attraction_Review-g31324-d10331285-Reviews-Glassford_Summit_Trail-Prescott_Valley_Arizona.html
p141
aVhttp://www.tripadvisor.com/Attraction_Review-g31324-d2648986-Reviews-Tara_Thai_Massage-Prescott_Valley_Arizona.html
p142
aVhttp://www.tripadvisor.com/Attraction_Review-g31324-d8865840-Reviews-Peddlers_Pass_Old_Time_Farmers_Flea_Market-Prescott_Valley_Arizona.html
p143
aVhttp://www.tripadvisor.com/Attraction_Review-g31324-d5841507-Reviews-Rockin_Horse_Saloon-Prescott_Valley_Arizona.html
p144
aVhttp://www.tripadvisor.com/Attraction_Review-g31324-d10729009-Reviews-Insight_Firearms_Shooting_Center-Prescott_Valley_Arizona.html
p145
aVhttp://www.tripadvisor.com/Attraction_Review-g31324-d10728921-Reviews-Antelope_Lanes-Prescott_Valley_Arizona.html
p146
aVhttp://www.tripadvisor.com/Attraction_Review-g31324-d12031566-Reviews-Spirit_and_Body_Massage-Prescott_Valley_Arizona.html
p147
aVhttp://www.tripadvisor.com/Attraction_Review-g31324-d7225094-Reviews-Vinyasa_Fit_Hot_Yoga_Studio-Prescott_Valley_Arizona.html
p148
aVhttp://www.tripadvisor.com/Attraction_Review-g43292-d3599643-Reviews-Plaza_Maplewood_Theatre-Maplewood_Minnesota.html
p149
aVhttp://www.tripadvisor.com/Attraction_Review-g43292-d586743-Reviews-The_Fright_Farm-Maplewood_Minnesota.html
p150
aVhttp://www.tripadvisor.com/Attraction_Review-g43292-d586073-Reviews-Myth-Maplewood_Minnesota.html
p151
aVhttp://www.tripadvisor.com/Attraction_Review-g43292-d3491050-Reviews-Keller_Golf_Course-Maplewood_Minnesota.html
p152
aVhttp://www.tripadvisor.com/Attraction_Review-g43292-d6983837-Reviews-Ponds_At_Battle_Creek-Maplewood_Minnesota.html
p153
aVhttp://www.tripadvisor.com/Attraction_Review-g43292-d6677616-Reviews-Battle_Creek_Dog_Park-Maplewood_Minnesota.html
p154
aVhttp://www.tripadvisor.com/Attraction_Review-g43292-d11658649-Reviews-Maplewood_Nature_Center-Maplewood_Minnesota.html
p155
aVhttp://www.tripadvisor.com/Attraction_Review-g43292-d5558164-Reviews-Maplewood_Community_Center-Maplewood_Minnesota.html
p156
aVhttp://www.tripadvisor.com/Attraction_Review-g43292-d5840957-Reviews-Freddy_s_Tiki_Hut-Maplewood_Minnesota.html
p157
aVhttp://www.tripadvisor.com/Attraction_Review-g43292-d5840901-Reviews-Bleechers_Bar_Grill_Maplewood_MN-Maplewood_Minnesota.html
p158
aVhttp://www.tripadvisor.com/Attraction_Review-g43292-d5829687-Reviews-Rookies_Sports_Bar_Maplewood_MN-Maplewood_Minnesota.html
p159
aVhttp://www.tripadvisor.com/Attraction_Review-g43292-d640498-Reviews-The_Rock-Maplewood_Minnesota.html
p160
aVhttp://www.tripadvisor.com/Attraction_Review-g36625-d611658-Reviews-Mistwood_Golf_Club-Romeoville_Illinois.html
p161
aVhttp://www.tripadvisor.com/Attraction_Review-g36625-d9865149-Reviews-Metal_Monkey_Brewing-Romeoville_Illinois.html
p162
aVhttp://www.tripadvisor.com/Attraction_Review-g36625-d6428739-Reviews-Beller_Museum-Romeoville_Illinois.html
p163
aVhttp://www.tripadvisor.com/Attraction_Review-g36625-d4027516-Reviews-Calamity_Janes_Sugar_Grove_Il-Romeoville_Illinois.html
p164
aVhttp://www.tripadvisor.com/Attraction_Review-g36625-d7391458-Reviews-Canlan_Ice_Sports-Romeoville_Illinois.html
p165
aVhttp://www.tripadvisor.com/Attraction_Review-g36625-d5835123-Reviews-Mongo_McMichaels-Romeoville_Illinois.html
p166
aVhttp://www.tripadvisor.com/Attraction_Review-g36625-d7195043-Reviews-Milili_Salon_and_Spa-Romeoville_Illinois.html
p167
aVhttp://www.tripadvisor.com/Attraction_Review-g36625-d5845913-Reviews-Stone_City_Saloon-Romeoville_Illinois.html
p168
aVhttp://www.tripadvisor.com/Attraction_Review-g36625-d5832238-Reviews-Lost_Acre_Tavern-Romeoville_Illinois.html
p169
aVhttp://www.tripadvisor.com/Attraction_Review-g55771-d7348436-Reviews-International_Museum_of_Cultures-Duncanville_Texas.html
p170
aVhttp://www.tripadvisor.com/Attraction_Review-g55771-d10235111-Reviews-Duncanville_Community_Theatre-Duncanville_Texas.html
p171
aVhttp://www.tripadvisor.com/Attraction_Review-g55771-d5838489-Reviews-PeNNe_PaTio-Duncanville_Texas.html
p172
aVhttp://www.tripadvisor.com/Attraction_Review-g29750-d282804-Reviews-Borgata_Casino-Atlantic_City_New_Jersey.html
p173
aVhttp://www.tripadvisor.com/Attraction_Review-g29750-d268859-Reviews-Atlantic_City_Boardwalk-Atlantic_City_New_Jersey.html
p174
aVhttp://www.tripadvisor.com/Attraction_Review-g29750-d269143-Reviews-Caesars_Atlantic_City_Casino-Atlantic_City_New_Jersey.html
p175
aVhttp://www.tripadvisor.com/Attraction_Review-g29750-d107495-Reviews-Absecon_Lighthouse-Atlantic_City_New_Jersey.html
p176
aVhttp://www.tripadvisor.com/Attraction_Review-g29750-d269145-Reviews-Harrah_s_Atlantic_City_Casino-Atlantic_City_New_Jersey.html
p177
aVhttp://www.tripadvisor.com/Attraction_Review-g29750-d3453484-Reviews-Tropicana_Casino-Atlantic_City_New_Jersey.html
p178
aVhttp://www.tripadvisor.com/Attraction_Review-g29750-d269142-Reviews-Bally_s_Atlantic_City_Casino-Atlantic_City_New_Jersey.html
p179
aVhttp://www.tripadvisor.com/Attraction_Review-g29750-d501311-Reviews-Tanger_Outlets-Atlantic_City_New_Jersey.html
p180
aVhttp://www.tripadvisor.com/Attraction_Review-g29750-d909710-Reviews-The_Playground_at_Caesars-Atlantic_City_New_Jersey.html
p181
aVhttp://www.tripadvisor.com/Attraction_Review-g29750-d269147-Reviews-Resorts_Atlantic_City_Casino-Atlantic_City_New_Jersey.html
p182
aVhttp://www.tripadvisor.com/Attraction_Review-g29750-d532225-Reviews-Boardwalk_Hall-Atlantic_City_New_Jersey.html
p183
aVhttp://www.tripadvisor.com/Attraction_Review-g29750-d2277815-Reviews-Golden_Nugget_Atlantic_City-Atlantic_City_New_Jersey.html
p184
aVhttp://www.tripadvisor.com/Attraction_Review-g29750-d622229-Reviews-Atlantic_City_Aquarium_Historic_Gardner_s_Basin-Atlantic_City_New_Jersey.html
p185
aVhttp://www.tripadvisor.com/Attraction_Review-g29750-d4816100-Reviews-Steel_Pier_Amusement_Park-Atlantic_City_New_Jersey.html
p186
aVhttp://www.tripadvisor.com/Attraction_Review-g29750-d518061-Reviews-Ripley_s_Believe_It_or_Not_Museum-Atlantic_City_New_Jersey.html
p187
aVhttp://www.tripadvisor.com/Attraction_Review-g29750-d269186-Reviews-Wild_Wild_West_Casino-Atlantic_City_New_Jersey.html
p188
aVhttp://www.tripadvisor.com/Attraction_Review-g29750-d1418534-Reviews-Atlantic_City_Convention_Center-Atlantic_City_New_Jersey.html
p189
aVhttp://www.tripadvisor.com/Attraction_Review-g29750-d107492-Reviews-Atlantic_City_Visitor_Welcome_Center-Atlantic_City_New_Jersey.html
p190
aVhttp://www.tripadvisor.com/Attraction_Review-g29750-d1452085-Reviews-Atlantic_City_Premium_Outlets-Atlantic_City_New_Jersey.html
p191
aVhttp://www.tripadvisor.com/Attraction_Review-g29750-d7964028-Reviews-Gardner_s_Basin-Atlantic_City_New_Jersey.html
p192
aVhttp://www.tripadvisor.com/Attraction_Review-g29750-d4440146-Reviews-Boardwalk_Information_Center-Atlantic_City_New_Jersey.html
p193
aVhttp://www.tripadvisor.com/Attraction_Review-g29750-d7053781-Reviews-Atlantic_City_Historical_Museum-Atlantic_City_New_Jersey.html
p194
aVhttp://www.tripadvisor.com/Attraction_Review-g29750-d10990271-Reviews-New_Jersey_Korean_War_Memorial-Atlantic_City_New_Jersey.html
p195
aVhttp://www.tripadvisor.com/Attraction_Review-g29750-d10593068-Reviews-Brighton_Park-Atlantic_City_New_Jersey.html
p196
aVhttp://www.tripadvisor.com/Attraction_Review-g29750-d532039-Reviews-Central_Pier_Arcade-Atlantic_City_New_Jersey.html
p197
aVhttp://www.tripadvisor.com/Attraction_Review-g46990-d2390412-Reviews-Hillcrest_Park_Zoo-Clovis_New_Mexico.html
p198
aVhttp://www.tripadvisor.com/Attraction_Review-g46990-d662718-Reviews-Norman_Petty_Studios-Clovis_New_Mexico.html
p199
aVhttp://www.tripadvisor.com/Attraction_Review-g46990-d5113171-Reviews-Norman_and_Vi_Petty_Rock_Roll_Museum-Clovis_New_Mexico.html
p200
aVhttp://www.tripadvisor.com/Attraction_Review-g46990-d1724330-Reviews-Blackwater_Draw_Museum-Clovis_New_Mexico.html
p201
aVhttp://www.tripadvisor.com/Attraction_Review-g46990-d10342809-Reviews-Under_Lock_and_Key-Clovis_New_Mexico.html
p202
aVhttp://www.tripadvisor.com/Attraction_Review-g46990-d6984975-Reviews-Mainline_Bowl-Clovis_New_Mexico.html
p203
aVhttp://www.tripadvisor.com/Attraction_Review-g46990-d9865573-Reviews-Main_Street_Crafters_Mall-Clovis_New_Mexico.html
p204
aVhttp://www.tripadvisor.com/Attraction_Review-g46990-d10059693-Reviews-Windrush_Alpacas-Clovis_New_Mexico.html
p205
aVhttp://www.tripadvisor.com/Attraction_Review-g46990-d10766086-Reviews-St_Bernard_Farms-Clovis_New_Mexico.html
p206
aVhttp://www.tripadvisor.com/Attraction_Review-g46990-d5839075-Reviews-The_Drop_Zone_Bar-Clovis_New_Mexico.html
p207
aVhttp://www.tripadvisor.com/Attraction_Review-g46990-d9865304-Reviews-North_Plains_Mall-Clovis_New_Mexico.html
p208
aVhttp://www.tripadvisor.com/Attraction_Review-g46990-d9865311-Reviews-Clovis_Depot_Model_Train_Museum-Clovis_New_Mexico.html
p209
aVhttp://www.tripadvisor.com/Attraction_Review-g56763-d5313415-Reviews-TopGolf_The_Colony-The_Colony_Texas.html
p210
aVhttp://www.tripadvisor.com/Attraction_Review-g56763-d181873-Reviews-The_Tribute_at_the_Colony-The_Colony_Texas.html
p211
aVhttp://www.tripadvisor.com/Attraction_Review-g56763-d3279643-Reviews-Hawaiian_Falls_The_Colony-The_Colony_Texas.html
p212
aVhttp://www.tripadvisor.com/Attraction_Review-g56763-d8521793-Reviews-Studio_Movie_Grill-The_Colony_Texas.html
p213
aVhttp://www.tripadvisor.com/Attraction_Review-g56763-d6637795-Reviews-Stewart_Creek_Park-The_Colony_Texas.html
p214
aVhttp://www.tripadvisor.com/Attraction_Review-g56763-d10401806-Reviews-The_Thirsty_Growler-The_Colony_Texas.html
p215
aVhttp://www.tripadvisor.com/Attraction_Review-g56763-d6637803-Reviews-Hidden_Cove_Park_Marina-The_Colony_Texas.html
p216
aVhttp://www.tripadvisor.com/Attraction_Review-g56763-d8468005-Reviews-Topgolf-The_Colony_Texas.html
p217
aVhttp://www.tripadvisor.com/Attraction_Review-g56763-d7902551-Reviews-Green_Touch_Massage-The_Colony_Texas.html
p218
aVhttp://www.tripadvisor.com/Attraction_Review-g56763-d6369326-Reviews-A_paddle_board_life-The_Colony_Texas.html
p219
aVhttp://www.tripadvisor.com/Attraction_Review-g32272-d105176-Reviews-Museum_of_Jurassic_Technology-Culver_City_California.html
p220
aVhttp://www.tripadvisor.com/Attraction_Review-g32272-d7038100-Reviews-The_Wende_Museum-Culver_City_California.html
p221
aVhttp://www.tripadvisor.com/Attraction_Review-g32272-d8806402-Reviews-Culver_City_Park-Culver_City_California.html
p222
aVhttp://www.tripadvisor.com/Attraction_Review-g32272-d572908-Reviews-Star_Eco_Station-Culver_City_California.html
p223
aVhttp://www.tripadvisor.com/Attraction_Review-g32272-d156436-Reviews-Culver_Ice_Rink-Culver_City_California.html
p224
aVhttp://www.tripadvisor.com/Attraction_Review-g32272-d10517600-Reviews-Holy_Cross_Catholic_Cemetery-Culver_City_California.html
p225
aVhttp://www.tripadvisor.com/Attraction_Review-g32272-d3723447-Reviews-Maxwell_Alexander_Gallery-Culver_City_California.html
p226
aVhttp://www.tripadvisor.com/Attraction_Review-g32272-d3491090-Reviews-Susanne_Vielmetter_Los_Angeles_Projects-Culver_City_California.html
p227
aVhttp://www.tripadvisor.com/Attraction_Review-g32272-d276903-Reviews-The_Umbrella-Culver_City_California.html
p228
aVhttp://www.tripadvisor.com/Attraction_Review-g41662-d7084303-Reviews-Trombetta_s_Farm-Marlborough_Massachusetts.html
p229
aVhttp://www.tripadvisor.com/Attraction_Review-g41662-d2181553-Reviews-Wayside_Country_Store-Marlborough_Massachusetts.html
p230
aVhttp://www.tripadvisor.com/Attraction_Review-g41662-d10513277-Reviews-Solomon_Pond_Mall-Marlborough_Massachusetts.html
p231
aVhttp://www.tripadvisor.com/Attraction_Review-g41662-d2467754-Reviews-Elements_Therapeutic_Massage-Marlborough_Massachusetts.html
p232
aVhttp://www.tripadvisor.com/Attraction_Review-g41662-d5845221-Reviews-The_Prospector-Marlborough_Massachusetts.html
p233
aVhttp://www.tripadvisor.com/Attraction_Review-g41662-d7675555-Reviews-Navin_Skating_Arena-Marlborough_Massachusetts.html
p234
aVhttp://www.tripadvisor.com/Attraction_Review-g41662-d11621103-Reviews-Drumais_Hair_Salon_and_Spa-Marlborough_Massachusetts.html
p235
aVhttp://www.tripadvisor.com/Attraction_Review-g41662-d5779111-Reviews-Hop_N_Jump-Marlborough_Massachusetts.html
p236
aVhttp://www.tripadvisor.com/Attraction_Review-g41662-d9564552-Reviews-Tilt_Studio-Marlborough_Massachusetts.html
p237
aVhttp://www.tripadvisor.com/Attraction_Review-g41662-d4494073-Reviews-Lazerzone-Marlborough_Massachusetts.html
p238
aVhttp://www.tripadvisor.com/Attraction_Review-g41662-d11621238-Reviews-Drumais_Hair_Salon-Marlborough_Massachusetts.html
p239
aVhttp://www.tripadvisor.com/Attraction_Review-g54273-d4680778-Reviews-Hilton_Head_Island_Bike_Trails-Hilton_Head_South_Carolina.html
p240
aVhttp://www.tripadvisor.com/Attraction_Review-g54273-d556460-Reviews-Coligny_Beach-Hilton_Head_South_Carolina.html
p241
aVhttp://www.tripadvisor.com/Attraction_Review-g54273-d256594-Reviews-Coastal_Discovery_Museum-Hilton_Head_South_Carolina.html
p242
aVhttp://www.tripadvisor.com/Attraction_Review-g54273-d105061-Reviews-Sea_Pines_Forest_Preserve-Hilton_Head_South_Carolina.html
p243
aVhttp://www.tripadvisor.com/Attraction_Review-g54273-d1584054-Reviews-Shelter_Cove_Harbour_Marina-Hilton_Head_South_Carolina.html
p244
aVhttp://www.tripadvisor.com/Attraction_Review-g54273-d136518-Reviews-Pinckney_Island_National_Wildlife_Refuge-Hilton_Head_South_Carolina.html
p245
aVhttp://www.tripadvisor.com/Attraction_Review-g54273-d8300909-Reviews-Shelter_Cove_Towne_Centre-Hilton_Head_South_Carolina.html
p246
aVhttp://www.tripadvisor.com/Attraction_Review-g54273-d4400695-Reviews-Folly_Field_Beach_Park-Hilton_Head_South_Carolina.html
p247
aVhttp://www.tripadvisor.com/Attraction_Review-g54273-d1877670-Reviews-Hilton_Head_Boathouse-Hilton_Head_South_Carolina.html
p248
aVhttp://www.tripadvisor.com/Attraction_Review-g54273-d5519628-Reviews-Harbour_Town_Lighthouse_Museum-Hilton_Head_South_Carolina.html
p249
aVhttp://www.tripadvisor.com/Attraction_Review-g54273-d4521834-Reviews-St_Francis_by_the_Sea_Catholic_Church-Hilton_Head_South_Carolina.html
p250
aVhttp://www.tripadvisor.com/Attraction_Review-g54273-d11094478-Reviews-Hilton_Head_Distillery-Hilton_Head_South_Carolina.html
p251
aVhttp://www.tripadvisor.com/Attraction_Review-g54273-d1584052-Reviews-Palmetto_Dunes_Tennis_Pickleball_Center-Hilton_Head_South_Carolina.html
p252
aVhttp://www.tripadvisor.com/Attraction_Review-g54273-d4242160-Reviews-Daufuskie_Island_Hilton_Head_Sc-Hilton_Head_South_Carolina.html
p253
aVhttp://www.tripadvisor.com/Attraction_Review-g43335-d272289-Reviews-Heritage_Hjemkomst_Interpretive_Center-Moorhead_Minnesota.html
p254
aVhttp://www.tripadvisor.com/Attraction_Review-g43335-d8090095-Reviews-Junkyard_Brewing_Company-Moorhead_Minnesota.html
p255
aVhttp://www.tripadvisor.com/Attraction_Review-g43335-d264401-Reviews-Bluestem_Prairie_Preserve-Moorhead_Minnesota.html
p256
aVhttp://www.tripadvisor.com/Attraction_Review-g43335-d1580399-Reviews-Rourke_Art_Gallery-Moorhead_Minnesota.html
p257
aVhttp://www.tripadvisor.com/Attraction_Review-g43335-d272294-Reviews-Comstock_House-Moorhead_Minnesota.html
p258
aVhttp://www.tripadvisor.com/Attraction_Review-g43335-d1580398-Reviews-Rourke_Art_Museum-Moorhead_Minnesota.html
p259
aVhttp://www.tripadvisor.com/Attraction_Review-g43335-d5833695-Reviews-Dave_s_Southside_Tap-Moorhead_Minnesota.html
p260
aVhttp://www.tripadvisor.com/Attraction_Review-g43335-d2331587-Reviews-Courtney_s_Comedy_Club-Moorhead_Minnesota.html
p261
aVhttp://www.tripadvisor.com/Attraction_Review-g43335-d10137002-Reviews-Doubting_Thomas_Farms-Moorhead_Minnesota.html
p262
aVhttp://www.tripadvisor.com/Attraction_Review-g43335-d6198288-Reviews-Lockwood_s_Tavern_Grill_at_the_Meadows_GC-Moorhead_Minnesota.html
p263
aVhttp://www.tripadvisor.com/Attraction_Review-g43335-d5837632-Reviews-Scobey_s_Tavern_Grill_at_Village_Green_GC-Moorhead_Minnesota.html
p264
aVhttp://www.tripadvisor.com/Attraction_Review-g43335-d219642-Reviews-Camp_Francophile-Moorhead_Minnesota.html
p265
aVhttp://www.tripadvisor.com/Attraction_Review-g32137-d6877365-Reviews-Gran_Plaza_Oulet-Calexico_California.html
p266
aVhttp://www.tripadvisor.com/Attraction_Review-g32137-d5840341-Reviews-Scorpion_s-Calexico_California.html
p267
aVhttp://www.tripadvisor.com/Attraction_Review-g31178-d2619335-Reviews-Laughlin_Ranch_Golf_Club-Bullhead_City_Arizona.html
p268
aVhttp://www.tripadvisor.com/Attraction_Review-g31178-d6959624-Reviews-Bullhead_City_Community_Park-Bullhead_City_Arizona.html
p269
aVhttp://www.tripadvisor.com/Attraction_Review-g31178-d635055-Reviews-Katherine_s_Landing-Bullhead_City_Arizona.html
p270
aVhttp://www.tripadvisor.com/Attraction_Review-g31178-d2311083-Reviews-Desert_River_Kayak-Bullhead_City_Arizona.html
p271
aVhttp://www.tripadvisor.com/Attraction_Review-g31178-d8153316-Reviews-The_Spa_at_Laughlin_Ranch-Bullhead_City_Arizona.html
p272
aVhttp://www.tripadvisor.com/Attraction_Review-g31178-d5839578-Reviews-Maddog_s_Bar_Grill_Bullhead_City_AZ-Bullhead_City_Arizona.html
p273
aVhttp://www.tripadvisor.com/Attraction_Review-g31178-d5830710-Reviews-Lazy_Harry_s_Sunshine_Saloon-Bullhead_City_Arizona.html
p274
aVhttp://www.tripadvisor.com/Attraction_Review-g31178-d10162793-Reviews-Water_World_Jet_Ski_Rentals_Accessories-Bullhead_City_Arizona.html
p275
aVhttp://www.tripadvisor.com/Attraction_Review-g31178-d8417214-Reviews-Dave_s_Jet_Ski_Rentals-Bullhead_City_Arizona.html
p276
aVhttp://www.tripadvisor.com/Attraction_Review-g31178-d7265518-Reviews-Dive_Shack_USA-Bullhead_City_Arizona.html
p277
aVhttp://www.tripadvisor.com/Attraction_Review-g31178-d10501899-Reviews-River_Star_Rentals-Bullhead_City_Arizona.html
p278
aVhttp://www.tripadvisor.com/Attraction_Review-g31178-d218495-Reviews-Desert_Lakes_Golf_Course-Bullhead_City_Arizona.html
p279
aVhttp://www.tripadvisor.com/Attraction_Review-g31178-d8390937-Reviews-The_Rink-Bullhead_City_Arizona.html
p280
aVhttp://www.tripadvisor.com/Attraction_Review-g31178-d6707265-Reviews-Malow_s_Jet_Ski_Rentals-Bullhead_City_Arizona.html
p281
aVhttp://www.tripadvisor.com/Attraction_Review-g31178-d10746556-Reviews-Eagle_Motorcycle_Rentals-Bullhead_City_Arizona.html
p282
aVhttp://www.tripadvisor.com/Attraction_Review-g31178-d5837356-Reviews-Lariat_Saloon_Bull_Head_City-Bullhead_City_Arizona.html
p283
aVhttp://www.tripadvisor.com/Attraction_Review-g55065-d8747308-Reviews-Germantown_Performing_Arts_Center-Germantown_Tennessee.html
p284
aVhttp://www.tripadvisor.com/Attraction_Review-g55065-d4755380-Reviews-Tennessee_Shakespeare_Company-Germantown_Tennessee.html
p285
aVhttp://www.tripadvisor.com/Attraction_Review-g55065-d10847286-Reviews-Oaklawn_Garden-Germantown_Tennessee.html
p286
aVhttp://www.tripadvisor.com/Attraction_Review-g32584-d1784205-Reviews-Old_Town_La_Quinta-La_Quinta_California.html
p287
aVhttp://www.tripadvisor.com/Attraction_Review-g32584-d4584432-Reviews-La_Quinta_Museum-La_Quinta_California.html
p288
aVhttp://www.tripadvisor.com/Attraction_Review-g32584-d1751437-Reviews-Lake_Cahuilla_Recreation_Area-La_Quinta_California.html
p289
aVhttp://www.tripadvisor.com/Attraction_Review-g50533-d3909529-Reviews-Rising_Park-Lancaster_Ohio.html
p290
aVhttp://www.tripadvisor.com/Attraction_Review-g50533-d1595903-Reviews-Sherman_House_Museum-Lancaster_Ohio.html
p291
aVhttp://www.tripadvisor.com/Attraction_Review-g50533-d6474886-Reviews-Decorative_Arts_Center_of_Ohio-Lancaster_Ohio.html
p292
aVhttp://www.tripadvisor.com/Attraction_Review-g50533-d4743998-Reviews-Valley_Zipline_Tours-Lancaster_Ohio.html
p293
aVhttp://www.tripadvisor.com/Attraction_Review-g50533-d3337072-Reviews-Rockmill_Brewery-Lancaster_Ohio.html
p294
aVhttp://www.tripadvisor.com/Attraction_Review-g50533-d5042999-Reviews-Rockside_Winery_and_Vineyards-Lancaster_Ohio.html
p295
aVhttp://www.tripadvisor.com/Attraction_Review-g50533-d2310751-Reviews-Ohio_Glass_Museum-Lancaster_Ohio.html
p296
aVhttp://www.tripadvisor.com/Attraction_Review-g50533-d4495378-Reviews-Skyview_Cruise_in_Theatre-Lancaster_Ohio.html
p297
aVhttp://www.tripadvisor.com/Attraction_Review-g50533-d6863135-Reviews-The_Georgian_Museum-Lancaster_Ohio.html
p298
aVhttp://www.tripadvisor.com/Attraction_Review-g50533-d8729473-Reviews-AHA_A_Hands_On_Adventure-Lancaster_Ohio.html
p299
aVhttp://www.tripadvisor.com/Attraction_Review-g50533-d4699362-Reviews-Jet_Pack_Water_Adventure-Lancaster_Ohio.html
p300
aVhttp://www.tripadvisor.com/Attraction_Review-g50533-d11514925-Reviews-Olde_Shoe_Factory_Antique_Mall-Lancaster_Ohio.html
p301
aVhttp://www.tripadvisor.com/Attraction_Review-g50533-d10059237-Reviews-Stonewall_Cemetery-Lancaster_Ohio.html
p302
aVhttp://www.tripadvisor.com/Attraction_Review-g50533-d12034808-Reviews-Jolly_Hoppers_Bounce_and_Play_Center-Lancaster_Ohio.html
p303
aVhttp://www.tripadvisor.com/Attraction_Review-g50533-d5847237-Reviews-Pauls_Nite_Club-Lancaster_Ohio.html
p304
aVhttp://www.tripadvisor.com/Attraction_Review-g50533-d5842276-Reviews-Old_Bill_Baileys-Lancaster_Ohio.html
p305
aVhttp://www.tripadvisor.com/Attraction_Review-g50533-d5837454-Reviews-RPM_Cafe-Lancaster_Ohio.html
p306
aVhttp://www.tripadvisor.com/Attraction_Review-g60370-d626530-Reviews-Leigh_Yawkey_Woodson_Art_Museum-Wausau_Wisconsin.html
p307
aVhttp://www.tripadvisor.com/Attraction_Review-g60370-d263834-Reviews-Granite_Peak-Wausau_Wisconsin.html
p308
aVhttp://www.tripadvisor.com/Attraction_Review-g60370-d1580392-Reviews-The_Grand_Theater-Wausau_Wisconsin.html
p309
aVhttp://www.tripadvisor.com/Attraction_Review-g60370-d4214300-Reviews-Yawkey_House_Museum-Wausau_Wisconsin.html
p310
aVhttp://www.tripadvisor.com/Attraction_Review-g60370-d4431263-Reviews-Robert_W_Monk_Public_Gardens-Wausau_Wisconsin.html
p311
aVhttp://www.tripadvisor.com/Attraction_Review-g60370-d7159461-Reviews-Bull_Falls_Brewery-Wausau_Wisconsin.html
p312
aVhttp://www.tripadvisor.com/Attraction_Review-g60370-d4145795-Reviews-Nine_Mile_Forest-Wausau_Wisconsin.html
p313
aVhttp://www.tripadvisor.com/Attraction_Review-g60370-d2525904-Reviews-Lil_Ole_Winemaker_Shoppe-Wausau_Wisconsin.html
p314
aVhttp://www.tripadvisor.com/Attraction_Review-g60370-d6902492-Reviews-Isle_of_Ferns_Park-Wausau_Wisconsin.html
p315
aVhttp://www.tripadvisor.com/Attraction_Review-g60370-d2460366-Reviews-Sylvan_Tubing_Hill-Wausau_Wisconsin.html
p316
aVhttp://www.tripadvisor.com/Attraction_Review-g60370-d7776799-Reviews-Athletic_Park-Wausau_Wisconsin.html
p317
aVhttp://www.tripadvisor.com/Attraction_Review-g60370-d7592222-Reviews-Willow_Springs_Garden-Wausau_Wisconsin.html
p318
aVhttp://www.tripadvisor.com/Attraction_Review-g60370-d4012347-Reviews-The_Center_for_the_Visual_Arts-Wausau_Wisconsin.html
p319
aVhttp://www.tripadvisor.com/Attraction_Review-g60370-d4263096-Reviews-State_Park_Speedway-Wausau_Wisconsin.html
p320
aVhttp://www.tripadvisor.com/Attraction_Review-g60370-d7142894-Reviews-Mountain_Bay_State_Trail-Wausau_Wisconsin.html
p321
aVhttp://www.tripadvisor.com/Attraction_Review-g60370-d4214295-Reviews-Woodson_History_Center-Wausau_Wisconsin.html
p322
aVhttp://www.tripadvisor.com/Attraction_Review-g60370-d10701514-Reviews-Wausau_Curling_Center-Wausau_Wisconsin.html
p323
aVhttp://www.tripadvisor.com/Attraction_Review-g56664-d2441393-Reviews-Harber_Wildlife_Museum-Sherman_Texas.html
p324
aVhttp://www.tripadvisor.com/Attraction_Review-g56664-d4829429-Reviews-Painting_with_a_Twist_Sherman-Sherman_Texas.html
p325
aVhttp://www.tripadvisor.com/Attraction_Review-g56664-d3225612-Reviews-Kelly_Square-Sherman_Texas.html
p326
aVhttp://www.tripadvisor.com/Attraction_Review-g56664-d8425005-Reviews-903_Brewers-Sherman_Texas.html
p327
aVhttp://www.tripadvisor.com/Attraction_Review-g56664-d6370198-Reviews-Sherman_Jazz_Museum-Sherman_Texas.html
p328
aVhttp://www.tripadvisor.com/Attraction_Review-g56664-d2907725-Reviews-The_Sherman_Museum-Sherman_Texas.html
p329
aVhttp://www.tripadvisor.com/Attraction_Review-g56664-d10494966-Reviews-The_Splash_Family_Aquatic_Center-Sherman_Texas.html
p330
aVhttp://www.tripadvisor.com/Attraction_Review-g56664-d9553772-Reviews-Outlaw_Trails_Historical_Museum-Sherman_Texas.html
p331
aVhttp://www.tripadvisor.com/Attraction_Review-g56664-d4513491-Reviews-Rocking_Lazy_K_Ranch-Sherman_Texas.html
p332
aVhttp://www.tripadvisor.com/Attraction_Review-g56664-d7187525-Reviews-Bella_Fontana_Day_Spa-Sherman_Texas.html
p333
aVhttp://www.tripadvisor.com/Attraction_Review-g34499-d4506051-Reviews-West_Orange_5_Cinema_Theater-Ocoee_Florida.html
p334
aVhttp://www.tripadvisor.com/Attraction_Review-g34499-d220088-Reviews-Forest_Lake_Golf_Club_of_Ocoee-Ocoee_Florida.html
p335
aVhttp://www.tripadvisor.com/Attraction_Review-g34499-d8309106-Reviews-Tom_West_Blueberries-Ocoee_Florida.html
p336
aVhttp://www.tripadvisor.com/Attraction_Review-g34499-d8552080-Reviews-Lake_Meadow_Naturals-Ocoee_Florida.html
p337
aVhttp://www.tripadvisor.com/Attraction_Review-g34499-d9756176-Reviews-AMC_West_Oaks_14-Ocoee_Florida.html
p338
aVhttp://www.tripadvisor.com/Attraction_Review-g34499-d2229435-Reviews-The_Woods_Laser_Tag-Ocoee_Florida.html
p339
aVhttp://www.tripadvisor.com/Attraction_Review-g34499-d7099553-Reviews-MC_Spa-Ocoee_Florida.html
p340
aVhttp://www.tripadvisor.com/Attraction_Review-g34499-d11700935-Reviews-Bill_Breeze_Park-Ocoee_Florida.html
p341
aVhttp://www.tripadvisor.com/Attraction_Review-g34499-d1526243-Reviews-Trilobyte_Game_Lounge-Ocoee_Florida.html
p342
aVhttp://www.tripadvisor.com/Attraction_Review-g43519-d266407-Reviews-Valleyfair-Shakopee_Minnesota.html
p343
aVhttp://www.tripadvisor.com/Attraction_Review-g43519-d267108-Reviews-Canterbury_Park-Shakopee_Minnesota.html
p344
aVhttp://www.tripadvisor.com/Attraction_Review-g43519-d623443-Reviews-Sever_s_Corn_Maze-Shakopee_Minnesota.html
p345
aVhttp://www.tripadvisor.com/Attraction_Review-g43519-d7625446-Reviews-Badger_Hill_Brewing_Company-Shakopee_Minnesota.html
p346
aVhttp://www.tripadvisor.com/Attraction_Review-g43519-d560250-Reviews-Murphy_s_Landing-Shakopee_Minnesota.html
p347
aVhttp://www.tripadvisor.com/Attraction_Review-g43519-d4495044-Reviews-Canterbuy_Downs_Horse_Racing_Track-Shakopee_Minnesota.html
p348
aVhttp://www.tripadvisor.com/Attraction_Review-g43519-d586746-Reviews-Trail_of_Terror-Shakopee_Minnesota.html
p349
aVhttp://www.tripadvisor.com/Attraction_Review-g43519-d8720467-Reviews-Mazomani_Trail-Shakopee_Minnesota.html
p350
aVhttp://www.tripadvisor.com/Attraction_Review-g43519-d1422246-Reviews-Scott_County_Historical_Society_Stans_Museum-Shakopee_Minnesota.html
p351
aVhttp://www.tripadvisor.com/Attraction_Review-g43519-d12080520-Reviews-Friendship_Church-Shakopee_Minnesota.html
p352
aVhttp://www.tripadvisor.com/Attraction_Review-g43519-d9583109-Reviews-Starters_Sports_Training-Shakopee_Minnesota.html
p353
aVhttp://www.tripadvisor.com/Attraction_Review-g41948-d7142157-Reviews-Horn_Pond-Woburn_Massachusetts.html
p354
aVhttp://www.tripadvisor.com/Attraction_Review-g41948-d7191012-Reviews-VinKari_Safari-Woburn_Massachusetts.html
p355
aVhttp://www.tripadvisor.com/Attraction_Review-g41948-d5567134-Reviews-Woburn_Public_Library-Woburn_Massachusetts.html
p356
aVhttp://www.tripadvisor.com/Attraction_Review-g41948-d8067263-Reviews-Showcase_Cinema_Woburn-Woburn_Massachusetts.html
p357
aVhttp://www.tripadvisor.com/Attraction_Review-g41948-d5226413-Reviews-LaserCraze_Woburn-Woburn_Massachusetts.html
p358
aVhttp://www.tripadvisor.com/Attraction_Review-g41948-d3870274-Reviews-Woburn_Bowladrome-Woburn_Massachusetts.html
p359
aVhttp://www.tripadvisor.com/Attraction_Review-g41948-d8475016-Reviews-Lord_Hobo_Brewing_Company-Woburn_Massachusetts.html
p360
aVhttp://www.tripadvisor.com/Attraction_Review-g41948-d7221940-Reviews-Boston_Rock_Gym-Woburn_Massachusetts.html
p361
aVhttp://www.tripadvisor.com/Attraction_Review-g41948-d8139185-Reviews-Virunga_Gorilla_Experts_Ltd-Woburn_Massachusetts.html
p362
aVhttp://www.tripadvisor.com/Attraction_Review-g41948-d12123796-Reviews-Dave_Busters-Woburn_Massachusetts.html
p363
aVhttp://www.tripadvisor.com/Attraction_Review-g41948-d10681912-Reviews-North_Shore_Escape-Woburn_Massachusetts.html
p364
aVhttp://www.tripadvisor.com/Attraction_Review-g41948-d10129995-Reviews-Paw_Prints_Indoor_Dog_Park-Woburn_Massachusetts.html
p365
aVhttp://www.tripadvisor.com/Attraction_Review-g41948-d11733365-Reviews-Lazer_Craze-Woburn_Massachusetts.html
p366
aVhttp://www.tripadvisor.com/Attraction_Review-g58364-d1825521-Reviews-USS_Turner_Joy_Museum_Ship-Bremerton_Washington.html
p367
aVhttp://www.tripadvisor.com/Attraction_Review-g58364-d1824586-Reviews-Puget_Sound_Navy_Museum-Bremerton_Washington.html
p368
aVhttp://www.tripadvisor.com/Attraction_Review-g58364-d1901944-Reviews-Harborside_Fountain_Park-Bremerton_Washington.html
p369
aVhttp://www.tripadvisor.com/Attraction_Review-g58364-d3681545-Reviews-Manette_Bridge-Bremerton_Washington.html
p370
aVhttp://www.tripadvisor.com/Attraction_Review-g58364-d3809150-Reviews-Bremerton_Bug_Museum-Bremerton_Washington.html
p371
aVhttp://www.tripadvisor.com/Attraction_Review-g58364-d6226800-Reviews-Puget_Sound_Naval_Shipyard_Memorial_Plaza-Bremerton_Washington.html
p372
aVhttp://www.tripadvisor.com/Attraction_Review-g58364-d6774224-Reviews-Illahee_State_Park-Bremerton_Washington.html
p373
aVhttp://www.tripadvisor.com/Attraction_Review-g58364-d6638392-Reviews-Silver_City_Brewery-Bremerton_Washington.html
p374
aVhttp://www.tripadvisor.com/Attraction_Review-g58364-d1825530-Reviews-Elandan_Gardens-Bremerton_Washington.html
p375
aVhttp://www.tripadvisor.com/Attraction_Review-g58364-d281010-Reviews-Bremerton_Historic_Ships_Association-Bremerton_Washington.html
p376
aVhttp://www.tripadvisor.com/Attraction_Review-g58364-d4323906-Reviews-Kitsap_Forest_Theater-Bremerton_Washington.html
p377
aVhttp://www.tripadvisor.com/Attraction_Review-g58364-d8410979-Reviews-Bremerton_Boardwalk-Bremerton_Washington.html
p378
aVhttp://www.tripadvisor.com/Attraction_Review-g58364-d4605513-Reviews-Aurora_Valentinetti_Puppet_Museum-Bremerton_Washington.html
p379
aVhttp://www.tripadvisor.com/Attraction_Review-g58364-d2441103-Reviews-Bremerton_Ice_Center-Bremerton_Washington.html
p380
aVhttp://www.tripadvisor.com/Attraction_Review-g58364-d3658778-Reviews-Amy_Burnett_Gallery-Bremerton_Washington.html
p381
aVhttp://www.tripadvisor.com/Attraction_Review-g58364-d4263296-Reviews-Purple_Scent_Lavender_Farm-Bremerton_Washington.html
p382
aVhttp://www.tripadvisor.com/Attraction_Review-g58364-d3658776-Reviews-Collective_Visions-Bremerton_Washington.html
p383
aVhttp://www.tripadvisor.com/Attraction_Review-g58364-d6224276-Reviews-Bremerton_Community_Theatre-Bremerton_Washington.html
p384
aVhttp://www.tripadvisor.com/Attraction_Review-g58364-d1824349-Reviews-Kitsap_Historical_Society_Museum-Bremerton_Washington.html
p385
aVhttp://www.tripadvisor.com/Attraction_Review-g58364-d7320814-Reviews-Green_Mountain-Bremerton_Washington.html
p386
aVhttp://www.tripadvisor.com/Attraction_Review-g58364-d3663709-Reviews-Manette_Playfield-Bremerton_Washington.html
p387
aVhttp://www.tripadvisor.com/Attraction_Review-g58364-d6352626-Reviews-Perry_Mall_Antiques_Collectibles-Bremerton_Washington.html
p388
aVhttp://www.tripadvisor.com/Attraction_Review-g58364-d7658068-Reviews-Kiwanis_Park-Bremerton_Washington.html
p389
aVhttp://www.tripadvisor.com/Attraction_Review-g58364-d6889770-Reviews-Olympic_Sports_Center-Bremerton_Washington.html
p390
aVhttp://www.tripadvisor.com/Attraction_Review-g36617-d284703-Reviews-Jumer_s_Casino_Rock_Island-Rock_Island_Illinois.html
p391
aVhttp://www.tripadvisor.com/Attraction_Review-g36617-d278935-Reviews-Rock_Island_Arsenal-Rock_Island_Illinois.html
p392
aVhttp://www.tripadvisor.com/Attraction_Review-g36617-d1700055-Reviews-Rock_Island_Arsenal_Museum-Rock_Island_Illinois.html
p393
aVhttp://www.tripadvisor.com/Attraction_Review-g36617-d481360-Reviews-Quad_City_Botanical_Center-Rock_Island_Illinois.html
p394
aVhttp://www.tripadvisor.com/Attraction_Review-g36617-d195971-Reviews-Mississippi_River_Visitors_Center-Rock_Island_Illinois.html
p395
aVhttp://www.tripadvisor.com/Attraction_Review-g36617-d8048551-Reviews-Atomic_Cannon-Rock_Island_Illinois.html
p396
aVhttp://www.tripadvisor.com/Attraction_Review-g36617-d3519187-Reviews-The_Karpeles_Manuscript_Museum-Rock_Island_Illinois.html
p397
aVhttp://www.tripadvisor.com/Attraction_Review-g36617-d4737637-Reviews-Colonel_Davenport_House-Rock_Island_Illinois.html
p398
aVhttp://www.tripadvisor.com/Attraction_Review-g36617-d8459389-Reviews-Mississippi_River_Lock_and_Dam_No_16-Rock_Island_Illinois.html
p399
aVhttp://www.tripadvisor.com/Attraction_Review-g36617-d4346295-Reviews-Hauberg_Museum-Rock_Island_Illinois.html
p400
aVhttp://www.tripadvisor.com/Attraction_Review-g36617-d195972-Reviews-Sunset_Park-Rock_Island_Illinois.html
p401
aVhttp://www.tripadvisor.com/Attraction_Review-g36617-d10330794-Reviews-Fryxell_Geology_Museum-Rock_Island_Illinois.html
p402
aVhttp://www.tripadvisor.com/Attraction_Review-g36617-d9758233-Reviews-Broadway_National_Historic_District-Rock_Island_Illinois.html
p403
aVhttp://www.tripadvisor.com/Attraction_Review-g36617-d8439044-Reviews-Whitewater_Junction-Rock_Island_Illinois.html
p404
aVhttp://www.tripadvisor.com/Attraction_Review-g51535-d2624346-Reviews-USS_Batfish-Muskogee_Oklahoma.html
p405
aVhttp://www.tripadvisor.com/Attraction_Review-g51535-d4985702-Reviews-Honor_Heights_Park-Muskogee_Oklahoma.html
p406
aVhttp://www.tripadvisor.com/Attraction_Review-g51535-d2365478-Reviews-The_Castle_of_Muskogee-Muskogee_Oklahoma.html
p407
aVhttp://www.tripadvisor.com/Attraction_Review-g51535-d578636-Reviews-Five_Civilized_Tribes_Museum-Muskogee_Oklahoma.html
p408
aVhttp://www.tripadvisor.com/Attraction_Review-g51535-d10308807-Reviews-Escape_Room_Muskogee-Muskogee_Oklahoma.html
p409
aVhttp://www.tripadvisor.com/Attraction_Review-g51535-d1544899-Reviews-River_Country_Water_Park-Muskogee_Oklahoma.html
p410
aVhttp://www.tripadvisor.com/Attraction_Review-g51535-d6504429-Reviews-Oklahoma_Music_Hall_of_Fame_and_Museum_Inc-Muskogee_Oklahoma.html
p411
aVhttp://www.tripadvisor.com/Attraction_Review-g51535-d4069045-Reviews-Three_Rivers_Museum_of_Muskogee_Ok_Inc-Muskogee_Oklahoma.html
p412
aVhttp://www.tripadvisor.com/Attraction_Review-g51535-d1837431-Reviews-Ataloa_Lodge_Museum-Muskogee_Oklahoma.html
p413
aVhttp://www.tripadvisor.com/Attraction_Review-g51535-d7714640-Reviews-Pecan_Creek_Winery-Muskogee_Oklahoma.html
p414
aVhttp://www.tripadvisor.com/Attraction_Review-g51535-d8639946-Reviews-Spaulding_Park-Muskogee_Oklahoma.html
p415
aVhttp://www.tripadvisor.com/Attraction_Review-g51535-d11669215-Reviews-Slow_Duck_Saloon-Muskogee_Oklahoma.html
p416
aVhttp://www.tripadvisor.com/Attraction_Review-g51535-d10901177-Reviews-Natural_Healing_Massage_Spa-Muskogee_Oklahoma.html
p417
aVhttp://www.tripadvisor.com/Attraction_Review-g51535-d5837771-Reviews-The_Hide_A_Way_Lounge-Muskogee_Oklahoma.html
p418
aVhttp://www.tripadvisor.com/Attraction_Review-g51535-d6479585-Reviews-Old_America_Antique_Mall-Muskogee_Oklahoma.html
p419
aVhttp://www.tripadvisor.com/Attraction_Review-g51535-d7171774-Reviews-Muscogee_Creek_Nation_Casino-Muskogee_Oklahoma.html
p420
aVhttp://www.tripadvisor.com/Attraction_Review-g51535-d8678767-Reviews-Yoga_Bindi-Muskogee_Oklahoma.html
p421
aVhttp://www.tripadvisor.com/Attraction_Review-g51535-d8138478-Reviews-Hattie_s_House_Antiques-Muskogee_Oklahoma.html
p422
aVhttp://www.tripadvisor.com/Attraction_Review-g51535-d5838946-Reviews-ALL_in_Tavern-Muskogee_Oklahoma.html
p423
aVhttp://www.tripadvisor.com/Attraction_Review-g44207-d1784051-Reviews-Cape_Girardeau_Conservation_Nature_Center-Cape_Girardeau_Missouri.html
p424
aVhttp://www.tripadvisor.com/Attraction_Review-g44207-d274451-Reviews-Missouri_Wall_of_Fame-Cape_Girardeau_Missouri.html
p425
aVhttp://www.tripadvisor.com/Attraction_Review-g44207-d3783785-Reviews-Isle_Casino_Cape_Girardeau-Cape_Girardeau_Missouri.html
p426
aVhttp://www.tripadvisor.com/Attraction_Review-g44207-d3332245-Reviews-Cape_Splash_Family_Aquatic_Center-Cape_Girardeau_Missouri.html
p427
aVhttp://www.tripadvisor.com/Attraction_Review-g44207-d2482862-Reviews-Lazy_L_Safari_Park-Cape_Girardeau_Missouri.html
p428
aVhttp://www.tripadvisor.com/Attraction_Review-g44207-d1784060-Reviews-Riverfront_Bridge_Park-Cape_Girardeau_Missouri.html
p429
aVhttp://www.tripadvisor.com/Attraction_Review-g44207-d4363890-Reviews-The_Red_House_Interpretive_Center-Cape_Girardeau_Missouri.html
p430
aVhttp://www.tripadvisor.com/Attraction_Review-g44207-d1891101-Reviews-Discovery_Playhouse-Cape_Girardeau_Missouri.html
p431
aVhttp://www.tripadvisor.com/Attraction_Review-g44207-d3823386-Reviews-The_Library-Cape_Girardeau_Missouri.html
p432
aVhttp://www.tripadvisor.com/Attraction_Review-g44207-d1784061-Reviews-Cape_Rock_Park-Cape_Girardeau_Missouri.html
p433
aVhttp://www.tripadvisor.com/Attraction_Review-g44207-d4505346-Reviews-Annie_Laurie_s-Cape_Girardeau_Missouri.html
p434
aVhttp://www.tripadvisor.com/Attraction_Review-g44207-d2619174-Reviews-LeBounce-Cape_Girardeau_Missouri.html
p435
aVhttp://www.tripadvisor.com/Attraction_Review-g44207-d4931298-Reviews-Glenn_House-Cape_Girardeau_Missouri.html
p436
aVhttp://www.tripadvisor.com/Attraction_Review-g44207-d8841191-Reviews-Old_St_Vincent_s_Church-Cape_Girardeau_Missouri.html
p437
aVhttp://www.tripadvisor.com/Attraction_Review-g44207-d1784058-Reviews-Fort_D_Historic_Site-Cape_Girardeau_Missouri.html
p438
aVhttp://www.tripadvisor.com/Attraction_Review-g44207-d9420141-Reviews-West_Park_Mall-Cape_Girardeau_Missouri.html
p439
aVhttp://www.tripadvisor.com/Attraction_Review-g44207-d3331582-Reviews-Hunter_Valley_Winery-Cape_Girardeau_Missouri.html
p440
aVhttp://www.tripadvisor.com/Attraction_Review-g44207-d6946580-Reviews-Crisp_Museum-Cape_Girardeau_Missouri.html
p441
aVhttp://www.tripadvisor.com/Attraction_Review-g44207-d8395081-Reviews-Pastimes_Antiques-Cape_Girardeau_Missouri.html
p442
aVhttp://www.tripadvisor.com/Attraction_Review-g44207-d6577727-Reviews-Apple_Creek_Vineyard_Winery-Cape_Girardeau_Missouri.html
p443
aVhttp://www.tripadvisor.com/Attraction_Review-g44207-d10033945-Reviews-A_C_Brase_Arena_Building_Park-Cape_Girardeau_Missouri.html
p444
aVhttp://www.tripadvisor.com/Attraction_Review-g44207-d9885960-Reviews-Osage_Centre-Cape_Girardeau_Missouri.html
p445
aVhttp://www.tripadvisor.com/Attraction_Review-g44207-d6277139-Reviews-The_Oliver_Leming_House-Cape_Girardeau_Missouri.html
p446
aVhttp://www.tripadvisor.com/Attraction_Review-g44207-d12048574-Reviews-Cape_LaCroix_Recreation_Trail-Cape_Girardeau_Missouri.html
p447
aVhttp://www.tripadvisor.com/Attraction_Review-g44207-d10174546-Reviews-The_Show_Me_Center-Cape_Girardeau_Missouri.html
p448
aVhttp://www.tripadvisor.com/Attraction_Review-g29494-d258251-Reviews-U_S_Naval_Academy-Annapolis_Maryland.html
p449
aVhttp://www.tripadvisor.com/Attraction_Review-g29494-d4546220-Reviews-Historic_Annapolis-Annapolis_Maryland.html
p450
aVhttp://www.tripadvisor.com/Attraction_Review-g29494-d116671-Reviews-Quiet_Waters_Park-Annapolis_Maryland.html
p451
aVhttp://www.tripadvisor.com/Attraction_Review-g29494-d142550-Reviews-Maryland_State_House-Annapolis_Maryland.html
p452
aVhttp://www.tripadvisor.com/Attraction_Review-g29494-d196116-Reviews-Ego_Alley-Annapolis_Maryland.html
p453
aVhttp://www.tripadvisor.com/Attraction_Review-g29494-d116665-Reviews-William_Paca_Garden-Annapolis_Maryland.html
p454
aVhttp://www.tripadvisor.com/Attraction_Review-g29494-d552395-Reviews-The_Kunta_Kinte_Alex_Haley_Memorial-Annapolis_Maryland.html
p455
aVhttp://www.tripadvisor.com/Attraction_Review-g29494-d207425-Reviews-St_Anne_s_Church-Annapolis_Maryland.html
p456
aVhttp://www.tripadvisor.com/Attraction_Review-g29494-d4660215-Reviews-St_Mary_s_Church-Annapolis_Maryland.html
p457
aVhttp://www.tripadvisor.com/Attraction_Review-g29494-d2401153-Reviews-Maryland_World_War_II_Memorial-Annapolis_Maryland.html
p458
aVhttp://www.tripadvisor.com/Attraction_Review-g29494-d218829-Reviews-Hammond_Harwood_House-Annapolis_Maryland.html
p459
aVhttp://www.tripadvisor.com/Attraction_Review-g29494-d2257852-Reviews-Pennsylvania_Dutch_Farmer_s_Market-Annapolis_Maryland.html
p460
aVhttp://www.tripadvisor.com/Attraction_Review-g29494-d2281496-Reviews-Sandy_Point_State_Park-Annapolis_Maryland.html
p461
aVhttp://www.tripadvisor.com/Attraction_Review-g29494-d116669-Reviews-B_A_Trail-Annapolis_Maryland.html
p462
aVhttp://www.tripadvisor.com/Attraction_Review-g29494-d219067-Reviews-St_John_s_College-Annapolis_Maryland.html
p463
aVhttp://www.tripadvisor.com/Attraction_Review-g29494-d584631-Reviews-Annapolis_Maritime_Museum-Annapolis_Maryland.html
p464
aVhttp://www.tripadvisor.com/Attraction_Review-g29494-d7154335-Reviews-Thomas_Point_Shoal_Lighthouse-Annapolis_Maryland.html
p465
aVhttp://www.tripadvisor.com/Attraction_Review-g29494-d219069-Reviews-Thurgood_Marshall_Memorial-Annapolis_Maryland.html
p466
aVhttp://www.tripadvisor.com/Attraction_Review-g29494-d218830-Reviews-Banneker_Douglass_Museum-Annapolis_Maryland.html
p467
aVhttp://www.tripadvisor.com/Attraction_Review-g29494-d6965527-Reviews-Westfield_Annapolis_Mall-Annapolis_Maryland.html
p468
aVhttp://www.tripadvisor.com/Attraction_Review-g29494-d3486412-Reviews-Jonas_Green_State_Park-Annapolis_Maryland.html
p469
aVhttp://www.tripadvisor.com/Attraction_Review-g29494-d6601925-Reviews-Annapolis_Summer_Garden_Theatre-Annapolis_Maryland.html
p470
aVhttp://www.tripadvisor.com/Attraction_Review-g29494-d3703462-Reviews-The_Colonial_Players-Annapolis_Maryland.html
p471
aVhttp://www.tripadvisor.com/Attraction_Review-g29494-d8838886-Reviews-Great_Frogs_Winery-Annapolis_Maryland.html
p472
aVhttp://www.tripadvisor.com/Attraction_Review-g34262-d560962-Reviews-Hoffman_s_Chocolate_Factory_Shoppe_Ice_Cream_Parlour_and_Gardens-Greenacres_Florida.html
p473
aVhttp://www.tripadvisor.com/Attraction_Review-g34517-d126844-Reviews-Ormond_Beach-Ormond_Beach_Florida.html
p474
aVhttp://www.tripadvisor.com/Attraction_Review-g34517-d3936100-Reviews-Andy_Romano_Beachfront_Park-Ormond_Beach_Florida.html
p475
aVhttp://www.tripadvisor.com/Attraction_Review-g34517-d3559811-Reviews-The_Loop-Ormond_Beach_Florida.html
p476
aVhttp://www.tripadvisor.com/Attraction_Review-g34517-d130219-Reviews-Tomoka_State_Park-Ormond_Beach_Florida.html
p477
aVhttp://www.tripadvisor.com/Attraction_Review-g34517-d267823-Reviews-The_Casements-Ormond_Beach_Florida.html
p478
aVhttp://www.tripadvisor.com/Attraction_Review-g34517-d2521232-Reviews-Ormond_Memorial_Art_Museum-Ormond_Beach_Florida.html
p479
aVhttp://www.tripadvisor.com/Attraction_Review-g34517-d3514889-Reviews-Tom_Renick_Park-Ormond_Beach_Florida.html
p480
aVhttp://www.tripadvisor.com/Attraction_Review-g34517-d3262182-Reviews-Bulow_Creek_State_Park-Ormond_Beach_Florida.html
p481
aVhttp://www.tripadvisor.com/Attraction_Review-g34517-d3604563-Reviews-St_Brendan_Catholic_Church-Ormond_Beach_Florida.html
p482
aVhttp://www.tripadvisor.com/Attraction_Review-g34517-d4578229-Reviews-Rockefeller_Gardens_Park-Ormond_Beach_Florida.html
p483
aVhttp://www.tripadvisor.com/Attraction_Review-g34517-d4578183-Reviews-Cassen_Park-Ormond_Beach_Florida.html
p484
aVhttp://www.tripadvisor.com/Attraction_Review-g34517-d3845717-Reviews-Central_Park-Ormond_Beach_Florida.html
p485
aVhttp://www.tripadvisor.com/Attraction_Review-g34517-d3845779-Reviews-Fortunato_Park-Ormond_Beach_Florida.html
p486
aVhttp://www.tripadvisor.com/Attraction_Review-g34517-d3514884-Reviews-Michael_Crotty_Bicentennial_Park-Ormond_Beach_Florida.html
p487
aVhttp://www.tripadvisor.com/Attraction_Review-g34517-d3845781-Reviews-Nova_Community_Park-Ormond_Beach_Florida.html
p488
aVhttp://www.tripadvisor.com/Attraction_Review-g34517-d3840942-Reviews-Birthplace_of_Speed_Park-Ormond_Beach_Florida.html
p489
aVhttp://www.tripadvisor.com/Attraction_Review-g34517-d3642367-Reviews-First_United_Methodist_Church-Ormond_Beach_Florida.html
p490
aVhttp://www.tripadvisor.com/Attraction_Review-g34517-d7396645-Reviews-Tomoka_Christian_Church-Ormond_Beach_Florida.html
p491
aVhttp://www.tripadvisor.com/Attraction_Review-g34517-d560629-Reviews-Destination_Daytona-Ormond_Beach_Florida.html
p492
aVhttp://www.tripadvisor.com/Attraction_Review-g34517-d3514701-Reviews-Al_Weeks_Sr_North_Shore_Park-Ormond_Beach_Florida.html
p493
aVhttp://www.tripadvisor.com/Attraction_Review-g34517-d3938369-Reviews-Bailey_Riverbridge_Gardens-Ormond_Beach_Florida.html
p494
aVhttp://www.tripadvisor.com/Attraction_Review-g34517-d3939082-Reviews-Sanchez_Park-Ormond_Beach_Florida.html
p495
aVhttp://www.tripadvisor.com/Attraction_Review-g34517-d4578227-Reviews-Fire_House_Park-Ormond_Beach_Florida.html
p496
aVhttp://www.tripadvisor.com/Attraction_Review-g34517-d4587836-Reviews-Ormond_Burial_Mound-Ormond_Beach_Florida.html
p497
aVhttp://www.tripadvisor.com/Attraction_Review-g34517-d3604584-Reviews-Ormond_Tomb_Park-Ormond_Beach_Florida.html
p498
aVhttp://www.tripadvisor.com/Attraction_Review-g34275-d560410-Reviews-Gulfstream_Park-Hallandale_Beach_Broward_County_Florida.html
p499
aVhttp://www.tripadvisor.com/Attraction_Review-g34275-d3803243-Reviews-Hallandale_Beach-Hallandale_Beach_Broward_County_Florida.html
p500
aVhttp://www.tripadvisor.com/Attraction_Review-g34275-d646446-Reviews-Mardi_Gras_Racetrack_and_Gaming_Center-Hallandale_Beach_Broward_County_Florida.html
p501
aVhttp://www.tripadvisor.com/Attraction_Review-g34275-d8027672-Reviews-Joseph_Scavo_Park-Hallandale_Beach_Broward_County_Florida.html
p502
aVhttp://www.tripadvisor.com/Attraction_Review-g34275-d12103842-Reviews-B_F_James_Park_Pool-Hallandale_Beach_Broward_County_Florida.html
p503
aVhttp://www.tripadvisor.com/Attraction_Review-g34275-d7603979-Reviews-Foster_Park-Hallandale_Beach_Broward_County_Florida.html
p504
aVhttp://www.tripadvisor.com/Attraction_Review-g33125-d10712175-Reviews-Stanton_Central_Park-Stanton_California.html
p505
aVhttp://www.tripadvisor.com/Attraction_Review-g33125-d10676976-Reviews-Corner_Lounge-Stanton_California.html
p506
aVhttp://www.tripadvisor.com/Attraction_Review-g33125-d5844883-Reviews-R3_Social_Lounge-Stanton_California.html
p507
aVhttp://www.tripadvisor.com/Attraction_Review-g33125-d5829331-Reviews-Corner_Pocket-Stanton_California.html
p508
aVhttp://www.tripadvisor.com/Attraction_Review-g33125-d5829120-Reviews-Fuzzy_bears-Stanton_California.html
p509
aVhttp://www.tripadvisor.com/Attraction_Review-g33125-d4888688-Reviews-Harry_M_Dotson_Park-Stanton_California.html
p510
aVhttp://www.tripadvisor.com/Attraction_Review-g58693-d7777011-Reviews-Pioneer_Park-Puyallup_Washington.html
p511
aVhttp://www.tripadvisor.com/Attraction_Review-g58693-d8016634-Reviews-Puyallup_Farmers_Market-Puyallup_Washington.html
p512
aVhttp://www.tripadvisor.com/Attraction_Review-g58693-d10404898-Reviews-Bradley_Lake_Park-Puyallup_Washington.html
p513
aVhttp://www.tripadvisor.com/Attraction_Review-g58693-d8721092-Reviews-Puyallup_Public_Library-Puyallup_Washington.html
p514
aVhttp://www.tripadvisor.com/Attraction_Review-g58693-d8374367-Reviews-Meeker_mansion-Puyallup_Washington.html
p515
aVhttp://www.tripadvisor.com/Attraction_Review-g58693-d2324578-Reviews-Putting_Zoo-Puyallup_Washington.html
p516
aVhttp://www.tripadvisor.com/Attraction_Review-g58693-d8377837-Reviews-Puyallup_Fish_Hatchery-Puyallup_Washington.html
p517
aVhttp://www.tripadvisor.com/Attraction_Review-g58693-d7937240-Reviews-3rd_Street_Antiques-Puyallup_Washington.html
p518
aVhttp://www.tripadvisor.com/Attraction_Review-g58693-d10596633-Reviews-Kiwanis_Kids_Spray_Park-Puyallup_Washington.html
p519
aVhttp://www.tripadvisor.com/Attraction_Review-g58693-d10596627-Reviews-Kiwanis_Kids_Spray_Park-Puyallup_Washington.html
p520
aVhttp://www.tripadvisor.com/Attraction_Review-g58693-d5503145-Reviews-Palmer_Wirfs_Antique_Expo-Puyallup_Washington.html
p521
aVhttp://www.tripadvisor.com/Attraction_Review-g32842-d6485179-Reviews-Devil_s_Slide_Trail-Pacifica_California.html
p522
aVhttp://www.tripadvisor.com/Attraction_Review-g32842-d10110653-Reviews-Mori_Point-Pacifica_California.html
p523
aVhttp://www.tripadvisor.com/Attraction_Review-g32842-d9844806-Reviews-Pacifica_Municipal_Pier-Pacifica_California.html
p524
aVhttp://www.tripadvisor.com/Attraction_Review-g32842-d5570247-Reviews-Sweeney_Ridge_Trail-Pacifica_California.html
p525
aVhttp://www.tripadvisor.com/Attraction_Review-g32842-d8065040-Reviews-San_Pedro_Valley_Park-Pacifica_California.html
p526
aVhttp://www.tripadvisor.com/Attraction_Review-g32842-d6818842-Reviews-Shelldance_Orchid_Gardens-Pacifica_California.html
p527
aVhttp://www.tripadvisor.com/Attraction_Review-g32842-d9596272-Reviews-Milagra_Ridge-Pacifica_California.html
p528
aVhttp://www.tripadvisor.com/Attraction_Review-g32842-d4738985-Reviews-Pacifica_Arts_Center-Pacifica_California.html
p529
aVhttp://www.tripadvisor.com/Attraction_Review-g32842-d10531264-Reviews-Frontierland_Park-Pacifica_California.html
p530
aVhttp://www.tripadvisor.com/Attraction_Review-g32842-d8769333-Reviews-Sanchez_Adobe_Park-Pacifica_California.html
p531
aVhttp://www.tripadvisor.com/Attraction_Review-g32842-d11823485-Reviews-Rockaway_Beach-Pacifica_California.html
p532
aVhttp://www.tripadvisor.com/Attraction_Review-g36099-d9766905-Reviews-Global_Taxi_Chicago-Hanover_Park_Illinois.html
p533
aVhttp://www.tripadvisor.com/Attraction_Review-g56015-d2447482-Reviews-Artisan_Center_Theater-Hurst_Texas.html
p534
aVhttp://www.tripadvisor.com/Attraction_Review-g56015-d145363-Reviews-Northeast_Mall-Hurst_Texas.html
p535
aVhttp://www.tripadvisor.com/Attraction_Review-g56015-d6881471-Reviews-Chisholm_Park-Hurst_Texas.html
p536
aVhttp://www.tripadvisor.com/Attraction_Review-g56015-d11741363-Reviews-IFLY_Indoor_Skydiving-Hurst_Texas.html
p537
aVhttp://www.tripadvisor.com/Attraction_Review-g56015-d3366402-Reviews-WhirlyBall_LaserWhirld_Mid_Cities-Hurst_Texas.html
p538
aVhttp://www.tripadvisor.com/Attraction_Review-g56015-d10499331-Reviews-Chisholm_Aquatics_Center-Hurst_Texas.html
p539
aVhttp://www.tripadvisor.com/Attraction_Review-g56015-d6553343-Reviews-The_Hurst_Conference_Center-Hurst_Texas.html
p540
aVhttp://www.tripadvisor.com/Attraction_Review-g56015-d4743955-Reviews-Serendipity_Massage_Wellness-Hurst_Texas.html
p541
aVhttp://www.tripadvisor.com/Attraction_Review-g56015-d5961950-Reviews-Rebounderz_Indoor_Trampoline_Arena-Hurst_Texas.html
p542
aVhttp://www.tripadvisor.com/Attraction_Review-g56015-d8837663-Reviews-Battlefield_Frontlines_Combat_Laser_Tag-Hurst_Texas.html
p543
aVhttp://www.tripadvisor.com/Attraction_Review-g56015-d7675300-Reviews-Anna_s_Hope_Chest-Hurst_Texas.html
p544
aVhttp://www.tripadvisor.com/Attraction_Review-g56015-d5837322-Reviews-Skippy_s_Bakery_Bar_Cigar_Shoppe-Hurst_Texas.html
p545
aVhttp://www.tripadvisor.com/Attraction_Review-g56015-d5836218-Reviews-Brewskis-Hurst_Texas.html
p546
aVhttp://www.tripadvisor.com/Attraction_Review-g50555-d8542819-Reviews-Alter_Ego_Comics-Lima_Ohio.html
p547
aVhttp://www.tripadvisor.com/Attraction_Review-g50555-d3317198-Reviews-Allen_County_Museum-Lima_Ohio.html
p548
aVhttp://www.tripadvisor.com/Attraction_Review-g50555-d7701805-Reviews-Veterans_Freedom_Flag_Monument-Lima_Ohio.html
p549
aVhttp://www.tripadvisor.com/Attraction_Review-g50555-d7031786-Reviews-Regal_American_Mall_Stadium_12-Lima_Ohio.html
p550
aVhttp://www.tripadvisor.com/Attraction_Review-g50555-d6783445-Reviews-Vino_Bellissimo-Lima_Ohio.html
p551
aVhttp://www.tripadvisor.com/Attraction_Review-g50555-d8424599-Reviews-ArtSpace_Lima-Lima_Ohio.html
p552
aVhttp://www.tripadvisor.com/Attraction_Review-g50555-d1526393-Reviews-Edgewood_Roller_Skating_Arena-Lima_Ohio.html
p553
aVhttp://www.tripadvisor.com/Attraction_Review-g50555-d11674304-Reviews-Lincoln_Park_Railway_Exhibit-Lima_Ohio.html
p554
aVhttp://www.tripadvisor.com/Attraction_Review-g50555-d612167-Reviews-Hidden_Creek_Golf_Club-Lima_Ohio.html
p555
aVhttp://www.tripadvisor.com/Attraction_Review-g50555-d11626628-Reviews-Sphere_Virtual_Reality_Arcade-Lima_Ohio.html
p556
aVhttp://www.tripadvisor.com/Attraction_Review-g50555-d5836772-Reviews-Avalon_Bar-Lima_Ohio.html
p557
aVhttp://www.tripadvisor.com/Attraction_Review-g50555-d11667044-Reviews-Springbrook_Golf_Club-Lima_Ohio.html
p558
aVhttp://www.tripadvisor.com/Attraction_Review-g50555-d5843569-Reviews-PAPPY_S-Lima_Ohio.html
p559
aVhttp://www.tripadvisor.com/Attraction_Review-g50555-d12076923-Reviews-Pit_Stop_Hobby_Shop-Lima_Ohio.html
p560
aVhttp://www.tripadvisor.com/Attraction_Review-g50555-d10784310-Reviews-Oaks_Golf_Club-Lima_Ohio.html
p561
aVhttp://www.tripadvisor.com/Attraction_Review-g50555-d5845655-Reviews-Platinum_Ultra_Lounge-Lima_Ohio.html
p562
aVhttp://www.tripadvisor.com/Attraction_Review-g50555-d5845293-Reviews-Mike_s_Waiting_Room-Lima_Ohio.html
p563
aVhttp://www.tripadvisor.com/Attraction_Review-g50555-d5839442-Reviews-North_End_Tavern-Lima_Ohio.html
p564
aVhttp://www.tripadvisor.com/Attraction_Review-g50555-d5836924-Reviews-The_Shamrock-Lima_Ohio.html
p565
aVhttp://www.tripadvisor.com/Attraction_Review-g50555-d5834406-Reviews-AJ_s_Tavern-Lima_Ohio.html
p566
aVhttp://www.tripadvisor.com/Attraction_Review-g35773-d10743741-Reviews-Main_Street_Bicycles-Carpentersville_Illinois.html
p567
aVhttp://www.tripadvisor.com/Attraction_Review-g35773-d5830296-Reviews-SKEETER_S_SALOON-Carpentersville_Illinois.html
p568
aVhttp://www.tripadvisor.com/Attraction_Review-g32811-d5840357-Reviews-Th_Broken_Wheel-Oakley_California.html
p569
aVhttp://www.tripadvisor.com/Attraction_Review-g32811-d5839894-Reviews-HOOTs_Barand_Casino-Oakley_California.html
p570
aVhttp://www.tripadvisor.com/Attraction_Review-g50462-d8272847-Reviews-Rose_Music_Center_at_The_Heights-Huber_Heights_Ohio.html
p571
aVhttp://www.tripadvisor.com/Attraction_Review-g50462-d10066624-Reviews-Rave_Cinemas-Huber_Heights_Ohio.html
p572
aVhttp://www.tripadvisor.com/Attraction_Review-g50462-d4766609-Reviews-Wise_Choice_British_Foods_Gifts_Candies-Huber_Heights_Ohio.html
p573
aVhttp://www.tripadvisor.com/Attraction_Review-g56133-d2501575-Reviews-Cold_War_Air_Museum-Lancaster_Texas.html
p574
aVhttp://www.tripadvisor.com/Attraction_Review-g56133-d9455012-Reviews-Commemorative_Air_Force_DFW_Wing-Lancaster_Texas.html
p575
aVhttp://www.tripadvisor.com/Attraction_Review-g32732-d4177719-Reviews-Mission_Tiki_Drive_in_Theatre-Montclair_California.html
p576
aVhttp://www.tripadvisor.com/Attraction_Review-g32732-d10696617-Reviews-Bowlium-Montclair_California.html
p577
aVhttp://www.tripadvisor.com/Attraction_Review-g32732-d5833575-Reviews-La_Selva_Night_Club-Montclair_California.html
p578
aVhttp://www.tripadvisor.com/Attraction_Review-g32732-d5832809-Reviews-The_Sand_Bar-Montclair_California.html
p579
aVhttp://www.tripadvisor.com/Attraction_Review-g36879-d5838029-Reviews-TGI_Fridays_Wheeling-Wheeling_Illinois.html
p580
aVhttp://www.tripadvisor.com/Attraction_Review-g36879-d5831851-Reviews-Kilcoynes_Redwood_Inn-Wheeling_Illinois.html
p581
aVhttp://www.tripadvisor.com/Attraction_Review-g36879-d7196044-Reviews-Massage_Envy_Spa_Wheeling-Wheeling_Illinois.html
p582
aVhttp://www.tripadvisor.com/Attraction_Review-g36879-d11978138-Reviews-Chevy_Chase_Country_Club-Wheeling_Illinois.html
p583
aVhttp://www.tripadvisor.com/Attraction_Review-g36879-d5838472-Reviews-Old_Munich_Inn-Wheeling_Illinois.html
p584
aVhttp://www.tripadvisor.com/Attraction_Review-g36879-d5838163-Reviews-Ps_Pub-Wheeling_Illinois.html
p585
aVhttp://www.tripadvisor.com/Attraction_Review-g36879-d11969850-Reviews-Squadron_Ops_Sim_Center-Wheeling_Illinois.html
p586
aVhttp://www.tripadvisor.com/Attraction_Review-g36879-d10683015-Reviews-Wheeling_Aquatic_Center-Wheeling_Illinois.html
p587
aVhttp://www.tripadvisor.com/Attraction_Review-g36879-d3834537-Reviews-Chicago_Jewelry_School-Wheeling_Illinois.html
p588
aVhttp://www.tripadvisor.com/Attraction_Review-g59733-d5567997-Reviews-Sharon_Lynne_Wilson_Center_for_the_Arts-Brookfield_Wisconsin.html
p589
aVhttp://www.tripadvisor.com/Attraction_Review-g59733-d8604562-Reviews-Fox_Brook_Park-Brookfield_Wisconsin.html
p590
aVhttp://www.tripadvisor.com/Attraction_Review-g59733-d10127144-Reviews-Water_2_Wine-Brookfield_Wisconsin.html
p591
aVhttp://www.tripadvisor.com/Attraction_Review-g59733-d7266092-Reviews-Pop_n_Spot_Gourmet_Popcorn_Shop-Brookfield_Wisconsin.html
p592
aVhttp://www.tripadvisor.com/Attraction_Review-g59733-d5994667-Reviews-Biloba_Brewing_Company-Brookfield_Wisconsin.html
p593
aVhttp://www.tripadvisor.com/Attraction_Review-g36525-d4739014-Reviews-Pickwick_Theater-Park_Ridge_Illinois.html
p594
aVhttp://www.tripadvisor.com/Attraction_Review-g36525-d3597892-Reviews-The_Park_Ridge_Civic_Orchestra-Park_Ridge_Illinois.html
p595
aVhttp://www.tripadvisor.com/Attraction_Review-g36525-d8417164-Reviews-Everafter_Skin_Spa-Park_Ridge_Illinois.html
p596
aVhttp://www.tripadvisor.com/Attraction_Review-g36525-d6665472-Reviews-Elements_Massage-Park_Ridge_Illinois.html
p597
aVhttp://www.tripadvisor.com/Attraction_Review-g36525-d1167871-Reviews-Venus_Spa-Park_Ridge_Illinois.html
p598
aVhttp://www.tripadvisor.com/Attraction_Review-g36525-d12150538-Reviews-Wildwood_Nature_Center-Park_Ridge_Illinois.html
p599
aVhttp://www.tripadvisor.com/Attraction_Review-g36525-d9858594-Reviews-Nu_Facials_By_Reyna-Park_Ridge_Illinois.html
p600
aVhttp://www.tripadvisor.com/Attraction_Review-g54229-d4749658-Reviews-Florence_Veterans_Park-Florence_South_Carolina.html
p601
aVhttp://www.tripadvisor.com/Attraction_Review-g54229-d2092347-Reviews-Palmetto_Peddlers_Antiques_Mall-Florence_South_Carolina.html
p602
aVhttp://www.tripadvisor.com/Attraction_Review-g54229-d7224321-Reviews-Florence_County_Museum-Florence_South_Carolina.html
p603
aVhttp://www.tripadvisor.com/Attraction_Review-g54229-d3396362-Reviews-Florence_National_Cemetery-Florence_South_Carolina.html
p604
aVhttp://www.tripadvisor.com/Attraction_Review-g54229-d9861396-Reviews-Drs_Bruce_Lee_Foundation_Library-Florence_South_Carolina.html
p605
aVhttp://www.tripadvisor.com/Attraction_Review-g54229-d7788962-Reviews-Thieves_Market-Florence_South_Carolina.html
p606
aVhttp://www.tripadvisor.com/Attraction_Review-g54229-d4065196-Reviews-War_Between_the_States_Museum-Florence_South_Carolina.html
p607
aVhttp://www.tripadvisor.com/Attraction_Review-g54229-d8484772-Reviews-Magnolia_Mall-Florence_South_Carolina.html
p608
aVhttp://www.tripadvisor.com/Attraction_Review-g54229-d2701392-Reviews-Columns_Plantation-Florence_South_Carolina.html
p609
aVhttp://www.tripadvisor.com/Attraction_Review-g54229-d4063395-Reviews-Florence_Stockade-Florence_South_Carolina.html
p610
aVhttp://www.tripadvisor.com/Attraction_Review-g54229-d11832103-Reviews-Timrod_Park-Florence_South_Carolina.html
p611
aVhttp://www.tripadvisor.com/Attraction_Review-g54229-d11832093-Reviews-Florence_Civic_Center-Florence_South_Carolina.html
p612
aVhttp://www.tripadvisor.com/Attraction_Review-g54229-d10854540-Reviews-Florence_Baptist_Temple-Florence_South_Carolina.html
p613
aVhttp://www.tripadvisor.com/Attraction_Review-g54229-d7923665-Reviews-First_Presbyterian_Church-Florence_South_Carolina.html
p614
aVhttp://www.tripadvisor.com/Attraction_Review-g54229-d10541157-Reviews-Never_Too_Old_Antiques_II-Florence_South_Carolina.html
p615
aVhttp://www.tripadvisor.com/Attraction_Review-g57117-d6364283-Reviews-A_Moment_In_Time_Antiques_Collectables-Roy_Utah.html
p616
aVhttp://www.tripadvisor.com/Attraction_Review-g57117-d5839732-Reviews-Rainbow_Saloon-Roy_Utah.html
p617
aVhttp://www.tripadvisor.com/Attraction_Review-g57117-d10319312-Reviews-Eagle_Lake_Golf_Course-Roy_Utah.html
p618
aVhttp://www.tripadvisor.com/Attraction_Review-g34745-d8064684-Reviews-Crooked_Can_Brewing_Company-Winter_Garden_Florida.html
p619
aVhttp://www.tripadvisor.com/Attraction_Review-g34745-d8806645-Reviews-Plant_Street_Market-Winter_Garden_Florida.html
p620
aVhttp://www.tripadvisor.com/Attraction_Review-g34745-d8649099-Reviews-Winter_Garden_Farmers_Market-Winter_Garden_Florida.html
p621
aVhttp://www.tripadvisor.com/Attraction_Review-g34745-d2057001-Reviews-Garden_Theatre-Winter_Garden_Florida.html
p622
aVhttp://www.tripadvisor.com/Attraction_Review-g34745-d2550157-Reviews-Winter_Garden_Heritage_Museum-Winter_Garden_Florida.html
p623
aVhttp://www.tripadvisor.com/Attraction_Review-g34745-d5505915-Reviews-Central_Florida_Railroad_Museum-Winter_Garden_Florida.html
p624
aVhttp://www.tripadvisor.com/Attraction_Review-g34745-d6474931-Reviews-Resurrection_Catholic_Church-Winter_Garden_Florida.html
p625
aVhttp://www.tripadvisor.com/Attraction_Review-g34745-d7380386-Reviews-Kaebisch_Chocolate-Winter_Garden_Florida.html
p626
aVhttp://www.tripadvisor.com/Attraction_Review-g34745-d5993307-Reviews-Winter_Garden_Art_Association-Winter_Garden_Florida.html
p627
aVhttp://www.tripadvisor.com/Attraction_Review-g34745-d3967123-Reviews-Warrior_Park-Winter_Garden_Florida.html
p628
aVhttp://www.tripadvisor.com/Attraction_Review-g41501-d4105925-Reviews-Mystic_Brewery-Chelsea_Massachusetts.html
p629
aVhttp://www.tripadvisor.com/Attraction_Review-g41501-d6376902-Reviews-Dillions_Russian_Steam_Bath-Chelsea_Massachusetts.html
p630
aVhttp://www.tripadvisor.com/Attraction_Review-g41501-d2263638-Reviews-Boston_Paintball-Chelsea_Massachusetts.html
p631
aVhttp://www.tripadvisor.com/Attraction_Review-g41501-d3599092-Reviews-Apollinaire_Theatre_Company-Chelsea_Massachusetts.html
p632
aVhttp://www.tripadvisor.com/Attraction_Review-g41501-d7144252-Reviews-Mary_O_Malley_Waterfront_Park-Chelsea_Massachusetts.html
p633
aVhttp://www.tripadvisor.com/Attraction_Review-g41501-d5838028-Reviews-Curlys_Falcon-Chelsea_Massachusetts.html
p634
aVhttp://www.tripadvisor.com/Attraction_Review-g48765-d2044346-Reviews-Green_Acres-Valley_Stream_Long_Island_New_York.html
p635
aVhttp://www.tripadvisor.com/Attraction_Review-g48765-d8099068-Reviews-Valley_Stream_State_Park-Valley_Stream_Long_Island_New_York.html
p636
aVhttp://www.tripadvisor.com/Attraction_Review-g48765-d5838571-Reviews-Larry_s_Pub-Valley_Stream_Long_Island_New_York.html
p637
aVhttp://www.tripadvisor.com/Attraction_Review-g48765-d9762748-Reviews-Guys_and_Dolls_Billiard-Valley_Stream_Long_Island_New_York.html
p638
aVhttp://www.tripadvisor.com/Attraction_Review-g48765-d5843239-Reviews-Railroad_Inn-Valley_Stream_Long_Island_New_York.html
p639
aVhttp://www.tripadvisor.com/Attraction_Review-g54448-d7078683-Reviews-RJ_Rockers_Brewing_Company-Spartanburg_South_Carolina.html
p640
aVhttp://www.tripadvisor.com/Attraction_Review-g54448-d2572985-Reviews-Hatcher_Garden_Woodland_Preserve-Spartanburg_South_Carolina.html
p641
aVhttp://www.tripadvisor.com/Attraction_Review-g54448-d534525-Reviews-BMW_Zentrum-Spartanburg_South_Carolina.html
p642
aVhttp://www.tripadvisor.com/Attraction_Review-g54448-d3368825-Reviews-Croft_State_Park-Spartanburg_South_Carolina.html
p643
aVhttp://www.tripadvisor.com/Attraction_Review-g54448-d534527-Reviews-Hollywild_Animal_Park-Spartanburg_South_Carolina.html
p644
aVhttp://www.tripadvisor.com/Attraction_Review-g54448-d534529-Reviews-Walnut_Grove_Plantation-Spartanburg_South_Carolina.html
p645
aVhttp://www.tripadvisor.com/Attraction_Review-g54448-d7051846-Reviews-Motte_Sons_Bootlegging_Company-Spartanburg_South_Carolina.html
p646
aVhttp://www.tripadvisor.com/Attraction_Review-g54448-d9883846-Reviews-Hub_City_Tap_House-Spartanburg_South_Carolina.html
p647
aVhttp://www.tripadvisor.com/Attraction_Review-g54448-d2643198-Reviews-Hub_City_Railroad_Museum-Spartanburg_South_Carolina.html
p648
aVhttp://www.tripadvisor.com/Attraction_Review-g54448-d6038150-Reviews-WestGate_Mall-Spartanburg_South_Carolina.html
p649
aVhttp://www.tripadvisor.com/Attraction_Review-g54448-d534523-Reviews-Spartanburg_County_Regional_Museum_of_History-Spartanburg_South_Carolina.html
p650
aVhttp://www.tripadvisor.com/Attraction_Review-g54448-d10726024-Reviews-Glendale_Shoals_Preserve-Spartanburg_South_Carolina.html
p651
aVhttp://www.tripadvisor.com/Attraction_Review-g54448-d8661058-Reviews-Upward_Star_Center-Spartanburg_South_Carolina.html
p652
aVhttp://www.tripadvisor.com/Attraction_Review-g54448-d11822892-Reviews-Spartanburg_County_Public_Libraries_Headquarters-Spartanburg_South_Carolina.html
p653
aVhttp://www.tripadvisor.com/Attraction_Review-g54448-d9858661-Reviews-Hobo_Hollar_Produce-Spartanburg_South_Carolina.html
p654
aVhttp://www.tripadvisor.com/Attraction_Review-g54448-d8424975-Reviews-Fantasy_Island_Family_Amusement_Center-Spartanburg_South_Carolina.html
p655
aVhttp://www.tripadvisor.com/Attraction_Review-g54448-d10434107-Reviews-Barnet_Park-Spartanburg_South_Carolina.html
p656
aVhttp://www.tripadvisor.com/Attraction_Review-g54448-d10751108-Reviews-TJC_Gallery-Spartanburg_South_Carolina.html
p657
aVhttp://www.tripadvisor.com/Attraction_Review-g54448-d12033048-Reviews-Edwin_M_Griffin_Nature_Preserve-Spartanburg_South_Carolina.html
p658
aVhttp://www.tripadvisor.com/Attraction_Review-g54448-d10000688-Reviews-Hub_City_Art_Park-Spartanburg_South_Carolina.html
p659
aVhttp://www.tripadvisor.com/Attraction_Review-g51939-d2412263-Reviews-Lake_Oswego_Farmers_Market-Lake_Oswego_Clackamas_County_Oregon.html
p660
aVhttp://www.tripadvisor.com/Attraction_Review-g51939-d8122085-Reviews-George_Rogers_Park-Lake_Oswego_Clackamas_County_Oregon.html
p661
aVhttp://www.tripadvisor.com/Attraction_Review-g51939-d4788883-Reviews-Portland_Oregon_Temple_Visitors_Center-Lake_Oswego_Clackamas_County_Oregon.html
p662
aVhttp://www.tripadvisor.com/Attraction_Review-g51939-d2494111-Reviews-Lakewood_Center_For_the_Arts-Lake_Oswego_Clackamas_County_Oregon.html
p663
aVhttp://www.tripadvisor.com/Attraction_Review-g51939-d2509904-Reviews-Arts_Council_of_Lake_Oswego-Lake_Oswego_Clackamas_County_Oregon.html
p664
aVhttp://www.tripadvisor.com/Attraction_Review-g55868-d10473600-Reviews-ILovekickboxing_Friendswood-Friendswood_Texas.html
p665
aVhttp://www.tripadvisor.com/Attraction_Review-g55868-d514987-Reviews-Timber_Creek_Golf_Club-Friendswood_Texas.html
p666
aVhttp://www.tripadvisor.com/Attraction_Review-g55868-d3573213-Reviews-Best_Shot_Range-Friendswood_Texas.html
p667
aVhttp://www.tripadvisor.com/Attraction_Review-g55868-d646641-Reviews-Bergamos_Spa_Retreat-Friendswood_Texas.html
p668
aVhttp://www.tripadvisor.com/Attraction_Review-g55868-d10664640-Reviews-Massage_Heights_Friendswood-Friendswood_Texas.html
p669
aVhttp://www.tripadvisor.com/Attraction_Review-g55868-d8402004-Reviews-Scrap_Shack-Friendswood_Texas.html
p670
aVhttp://www.tripadvisor.com/Attraction_Review-g51137-d278727-Reviews-Inniswood_Metro_Gardens-Westerville_Ohio.html
p671
aVhttp://www.tripadvisor.com/Attraction_Review-g51137-d10179754-Reviews-Hoover_Dam-Westerville_Ohio.html
p672
aVhttp://www.tripadvisor.com/Attraction_Review-g51137-d2632244-Reviews-Westerville_Mini_Golf-Westerville_Ohio.html
p673
aVhttp://www.tripadvisor.com/Attraction_Review-g51137-d7904959-Reviews-Blendon_Woods_Park-Westerville_Ohio.html
p674
aVhttp://www.tripadvisor.com/Attraction_Review-g51137-d3372457-Reviews-Good_Vibes_Winery-Westerville_Ohio.html
p675
aVhttp://www.tripadvisor.com/Attraction_Review-g51137-d7047726-Reviews-Char_Mar_Ridge_Preserve-Westerville_Ohio.html
p676
aVhttp://www.tripadvisor.com/Attraction_Review-g51137-d5830917-Reviews-Jimmy_V_s_Grill_Pub-Westerville_Ohio.html
p677
aVhttp://www.tripadvisor.com/Attraction_Review-g51137-d9765803-Reviews-Everal_Barn_Homestead-Westerville_Ohio.html
p678
aVhttp://www.tripadvisor.com/Attraction_Review-g51137-d8821962-Reviews-Towers_Hall-Westerville_Ohio.html
p679
aVhttp://www.tripadvisor.com/Attraction_Review-g51137-d10156504-Reviews-Cushions_Billiards-Westerville_Ohio.html
p680
aVhttp://www.tripadvisor.com/Attraction_Review-g51137-d8671861-Reviews-Otterbein_College_Theatre-Westerville_Ohio.html
p681
aVhttp://www.tripadvisor.com/Attraction_Review-g51137-d8543387-Reviews-Rocky_Fork_Metro_Park-Westerville_Ohio.html
p682
aVhttp://www.tripadvisor.com/Attraction_Review-g51137-d4660044-Reviews-EagleRider_Motorcycle_Rentals-Westerville_Ohio.html
p683
aVhttp://www.tripadvisor.com/Attraction_Review-g51137-d8009743-Reviews-Phelps_Acre_Park-Westerville_Ohio.html
p684
aVhttp://www.tripadvisor.com/Attraction_Review-g51137-d5835934-Reviews-Average_Joe_s_New_Albany-Westerville_Ohio.html
p685
aVhttp://www.tripadvisor.com/Attraction_Review-g51137-d5832790-Reviews-Kicks-Westerville_Ohio.html
p686
aVhttp://www.tripadvisor.com/Attraction_Review-g33568-d3825746-Reviews-Healing_Waters_Mind_and_Body_Float_Studio-Northglenn_Colorado.html
p687
aVhttp://www.tripadvisor.com/Attraction_Review-g33568-d7144560-Reviews-Denver_Escape_Room-Northglenn_Colorado.html
p688
aVhttp://www.tripadvisor.com/Attraction_Review-g33568-d3266936-Reviews-Boondocks_Food_Fun-Northglenn_Colorado.html
p689
aVhttp://www.tripadvisor.com/Attraction_Review-g33568-d8263942-Reviews-E_B_Rains_Junior_Memorial_Park-Northglenn_Colorado.html
p690
aVhttp://www.tripadvisor.com/Attraction_Review-g33568-d5838325-Reviews-Bissell_s_Pub-Northglenn_Colorado.html
p691
aVhttp://www.tripadvisor.com/Attraction_Review-g33568-d4766995-Reviews-The_Little_Massage_Shop-Northglenn_Colorado.html
p692
aVhttp://www.tripadvisor.com/Attraction_Review-g30772-d4604181-Reviews-East_Alabama_Motor_Speedway-Phenix_City_Alabama.html
p693
aVhttp://www.tripadvisor.com/Attraction_Review-g30772-d4371222-Reviews-Chatt_Glide_Tours-Phenix_City_Alabama.html
p694
aVhttp://www.tripadvisor.com/Attraction_Review-g30772-d8442420-Reviews-Lakewood_Golf_Course-Phenix_City_Alabama.html
p695
aVhttp://www.tripadvisor.com/Attraction_Review-g30772-d5842202-Reviews-Greer_s_Bar_Grill-Phenix_City_Alabama.html
p696
aVhttp://www.tripadvisor.com/Attraction_Review-g30772-d5839120-Reviews-Suds_Shells-Phenix_City_Alabama.html
p697
aVhttp://www.tripadvisor.com/Attraction_Review-g50406-d8043386-Reviews-Hop_Yard_62-Grove_City_Ohio.html
p698
aVhttp://www.tripadvisor.com/Attraction_Review-g50406-d2263609-Reviews-Trapper_John_s_Canoe_Livery-Grove_City_Ohio.html
p699
aVhttp://www.tripadvisor.com/Attraction_Review-g50406-d636077-Reviews-Gardens_at_Gantz_Farm-Grove_City_Ohio.html
p700
aVhttp://www.tripadvisor.com/Attraction_Review-g50406-d4367094-Reviews-Putt_N_Play-Grove_City_Ohio.html
p701
aVhttp://www.tripadvisor.com/Attraction_Review-g50406-d8440118-Reviews-Grove_City_Welcome_Center_and_Museum-Grove_City_Ohio.html
p702
aVhttp://www.tripadvisor.com/Attraction_Review-g50406-d3536913-Reviews-World_of_Bounce-Grove_City_Ohio.html
p703
aVhttp://www.tripadvisor.com/Attraction_Review-g50406-d4374291-Reviews-Fryer_Park-Grove_City_Ohio.html
p704
aVhttp://www.tripadvisor.com/Attraction_Review-g50406-d8262999-Reviews-The_Lollipop_Stop-Grove_City_Ohio.html
p705
aVhttp://www.tripadvisor.com/Attraction_Review-g50406-d9582920-Reviews-Plum_Run_Winery-Grove_City_Ohio.html
p706
aVhttp://www.tripadvisor.com/Attraction_Review-g50406-d6210937-Reviews-Skate_America-Grove_City_Ohio.html
p707
aVhttp://www.tripadvisor.com/Attraction_Review-g50406-d3636106-Reviews-Peddler_Lounge-Grove_City_Ohio.html
p708
aVhttp://www.tripadvisor.com/Attraction_Review-g50406-d5842701-Reviews-Plank_s_on_Broadway-Grove_City_Ohio.html
p709
aVhttp://www.tripadvisor.com/Attraction_Review-g50406-d12135244-Reviews-LVL_UP_Sports_Paintball_Park-Grove_City_Ohio.html
p710
aVhttp://www.tripadvisor.com/Attraction_Review-g50406-d11887919-Reviews-Burn_Within_Yoga-Grove_City_Ohio.html
p711
aVhttp://www.tripadvisor.com/Attraction_Review-g50406-d9554997-Reviews-Grove_City_Visitors_Center-Grove_City_Ohio.html
p712
aVhttp://www.tripadvisor.com/Attraction_Review-g50406-d8141788-Reviews-Gibboney_s_Aerostation-Grove_City_Ohio.html
p713
aVhttp://www.tripadvisor.com/Attraction_Review-g50406-d5832573-Reviews-The_Time_Zone-Grove_City_Ohio.html
p714
aVhttp://www.tripadvisor.com/Attraction_Review-g56760-d3769032-Reviews-Perot_Theatre-Texarkana_Texas.html
p715
aVhttp://www.tripadvisor.com/Attraction_Review-g56760-d2667720-Reviews-Draughon_Moore_Ace_of_Clubs_House-Texarkana_Texas.html
p716
aVhttp://www.tripadvisor.com/Attraction_Review-g56760-d3830447-Reviews-Texarkana_Convention_Center-Texarkana_Texas.html
p717
aVhttp://www.tripadvisor.com/Attraction_Review-g56760-d3843575-Reviews-Discovery_Place_Children_s_Museum-Texarkana_Texas.html
p718
aVhttp://www.tripadvisor.com/Attraction_Review-g56760-d6903633-Reviews-Haunted_Texarkana_Ghost_Walk-Texarkana_Texas.html
p719
aVhttp://www.tripadvisor.com/Attraction_Review-g56760-d3381411-Reviews-Museum_of_Regional_History-Texarkana_Texas.html
p720
aVhttp://www.tripadvisor.com/Attraction_Review-g56760-d10112138-Reviews-Cinemark_Texarkana_14-Texarkana_Texas.html
p721
aVhttp://www.tripadvisor.com/Attraction_Review-g56760-d8725577-Reviews-Perot_Leadership_Museum-Texarkana_Texas.html
p722
aVhttp://www.tripadvisor.com/Attraction_Review-g56760-d8428570-Reviews-Bubblecraft_soapworks-Texarkana_Texas.html
p723
aVhttp://www.tripadvisor.com/Attraction_Review-g56760-d3440961-Reviews-Texarkana_Farmers_Market-Texarkana_Texas.html
p724
aVhttp://www.tripadvisor.com/Attraction_Review-g56760-d3845990-Reviews-Texarkana_Museums_System-Texarkana_Texas.html
p725
aVhttp://www.tripadvisor.com/Attraction_Review-g56760-d3783395-Reviews-Texarkana_Regional_Arts_and_Humanities_Council-Texarkana_Texas.html
p726
aVhttp://www.tripadvisor.com/Attraction_Review-g56760-d10001069-Reviews-Oaklawn_Opry-Texarkana_Texas.html
p727
aVhttp://www.tripadvisor.com/Attraction_Review-g56760-d6899681-Reviews-Silvermoon_Children_s_Theatre-Texarkana_Texas.html
p728
aVhttp://www.tripadvisor.com/Attraction_Review-g56760-d8099213-Reviews-Texarkana_Golf_Ranch-Texarkana_Texas.html
p729
aVhttp://www.tripadvisor.com/Attraction_Review-g56760-d10820214-Reviews-Escape_Texarkana-Texarkana_Texas.html
p730
aVhttp://www.tripadvisor.com/Attraction_Review-g56760-d5598824-Reviews-Red_Road_Winery-Texarkana_Texas.html
p731
aVhttp://www.tripadvisor.com/Attraction_Review-g56760-d8067669-Reviews-Zoohaa_Adventure_Zone-Texarkana_Texas.html
p732
aVhttp://www.tripadvisor.com/Attraction_Review-g29237-d4074599-Reviews-Marcus_Addison_Cinema-Addison_DuPage_County_Illinois.html
p733
aVhttp://www.tripadvisor.com/Attraction_Review-g29237-d4299749-Reviews-K1_Speed_Addison-Addison_DuPage_County_Illinois.html
p734
aVhttp://www.tripadvisor.com/Attraction_Review-g29237-d6454565-Reviews-Lazer_X_of_Addison-Addison_DuPage_County_Illinois.html
p735
aVhttp://www.tripadvisor.com/Attraction_Review-g29237-d11810246-Reviews-Executive_Chauffeuring-Addison_DuPage_County_Illinois.html
p736
aVhttp://www.tripadvisor.com/Attraction_Review-g29237-d5839704-Reviews-Dilligaf_s-Addison_DuPage_County_Illinois.html
p737
aVhttp://www.tripadvisor.com/Attraction_Review-g29237-d5838060-Reviews-Charleys_Tavern-Addison_DuPage_County_Illinois.html
p738
aVhttp://www.tripadvisor.com/Attraction_Review-g29237-d5830464-Reviews-Blue_Line_Bar_and_Grill-Addison_DuPage_County_Illinois.html
p739
aVhttp://www.tripadvisor.com/Attraction_Review-g34009-d274543-Reviews-Air_Mobility_Command_Museum-Dover_Delaware.html
p740
aVhttp://www.tripadvisor.com/Attraction_Review-g34009-d264222-Reviews-Dover_Downs_Casino-Dover_Delaware.html
p741
aVhttp://www.tripadvisor.com/Attraction_Review-g34009-d286562-Reviews-Dover_International_Speedway-Dover_Delaware.html
p742
aVhttp://www.tripadvisor.com/Attraction_Review-g34009-d270374-Reviews-Johnson_Victrola_Museum-Dover_Delaware.html
p743
aVhttp://www.tripadvisor.com/Attraction_Review-g34009-d286477-Reviews-John_Dickinson_Plantation-Dover_Delaware.html
p744
aVhttp://www.tripadvisor.com/Attraction_Review-g34009-d270375-Reviews-Biggs_Museum_of_American_Art-Dover_Delaware.html
p745
aVhttp://www.tripadvisor.com/Attraction_Review-g34009-d286475-Reviews-Delaware_Agricultural_Museum_and_Village-Dover_Delaware.html
p746
aVhttp://www.tripadvisor.com/Attraction_Review-g34009-d286476-Reviews-Old_State_House-Dover_Delaware.html
p747
aVhttp://www.tripadvisor.com/Attraction_Review-g34009-d286913-Reviews-Spence_s_Bazaar-Dover_Delaware.html
p748
aVhttp://www.tripadvisor.com/Attraction_Review-g34009-d2477862-Reviews-Fordham_Brewing_Co-Dover_Delaware.html
p749
aVhttp://www.tripadvisor.com/Attraction_Review-g34009-d2169933-Reviews-First_State_Heritage_Park-Dover_Delaware.html
p750
aVhttp://www.tripadvisor.com/Attraction_Review-g34009-d286668-Reviews-Delaware_Public_Archives-Dover_Delaware.html
p751
aVhttp://www.tripadvisor.com/Attraction_Review-g34009-d3353480-Reviews-Legislative_Hall-Dover_Delaware.html
p752
aVhttp://www.tripadvisor.com/Attraction_Review-g34009-d287803-Reviews-Delaware_State_Police_Museum_and_Education_Center-Dover_Delaware.html
p753
aVhttp://www.tripadvisor.com/Attraction_Review-g34009-d286700-Reviews-Christ_Episcopal_Church-Dover_Delaware.html
p754
aVhttp://www.tripadvisor.com/Attraction_Review-g34009-d607557-Reviews-Schwartz_Center_for_the_Arts-Dover_Delaware.html
p755
aVhttp://www.tripadvisor.com/Attraction_Review-g34009-d3382685-Reviews-Pickering_Beach-Dover_Delaware.html
p756
aVhttp://www.tripadvisor.com/Attraction_Review-g34009-d2044353-Reviews-Dover_Mall-Dover_Delaware.html
p757
aVhttp://www.tripadvisor.com/Attraction_Review-g34009-d287802-Reviews-Delaware_State_Visitor_Center-Dover_Delaware.html
p758
aVhttp://www.tripadvisor.com/Attraction_Review-g34009-d8820224-Reviews-Firefly_Music_Festival-Dover_Delaware.html
p759
aVhttp://www.tripadvisor.com/Attraction_Review-g34009-d287284-Reviews-Delaware_Governor_s_Mansion_Woodburn-Dover_Delaware.html
p760
aVhttp://www.tripadvisor.com/Attraction_Review-g34009-d270373-Reviews-The_Old_State_House-Dover_Delaware.html
p761
aVhttp://www.tripadvisor.com/Attraction_Review-g34009-d7034216-Reviews-Children_s_Theatre-Dover_Delaware.html
p762
aVhttp://www.tripadvisor.com/Attraction_Review-g42407-d4431242-Reviews-Diamond_Jack_s_River_Tours-Lincoln_Park_Michigan.html
p763
aVhttp://www.tripadvisor.com/Attraction_Review-g42407-d7220628-Reviews-Magina_Books-Lincoln_Park_Michigan.html
p764
aVhttp://www.tripadvisor.com/Attraction_Review-g42407-d5831475-Reviews-Blue_Iguana-Lincoln_Park_Michigan.html
p765
aVhttp://www.tripadvisor.com/Attraction_Review-g42407-d5847889-Reviews-Ball_Cue_Brew_Billiards_and_Pro_Shop-Lincoln_Park_Michigan.html
p766
aVhttp://www.tripadvisor.com/Attraction_Review-g42499-d1065703-Reviews-Pere_Marquette_Park-Muskegon_Muskegon_County_Michigan.html
p767
aVhttp://www.tripadvisor.com/Attraction_Review-g42499-d4501301-Reviews-USS_Silversides_Submarine_Museum-Muskegon_Muskegon_County_Michigan.html
p768
aVhttp://www.tripadvisor.com/Attraction_Review-g42499-d632277-Reviews-Hoffmaster_State_Park-Muskegon_Muskegon_County_Michigan.html
p769
aVhttp://www.tripadvisor.com/Attraction_Review-g42499-d134722-Reviews-Muskegon_State_Park-Muskegon_Muskegon_County_Michigan.html
p770
aVhttp://www.tripadvisor.com/Attraction_Review-g42499-d265969-Reviews-Michigan_s_Adventure-Muskegon_Muskegon_County_Michigan.html
p771
aVhttp://www.tripadvisor.com/Attraction_Review-g42499-d1523090-Reviews-USS_LST_393-Muskegon_Muskegon_County_Michigan.html
p772
aVhttp://www.tripadvisor.com/Attraction_Review-g42499-d2172518-Reviews-Hackley_and_Hume_Historic_Site-Muskegon_Muskegon_County_Michigan.html
p773
aVhttp://www.tripadvisor.com/Attraction_Review-g42499-d2433415-Reviews-Muskegon_Museum_of_Art-Muskegon_Muskegon_County_Michigan.html
p774
aVhttp://www.tripadvisor.com/Attraction_Review-g42499-d4308145-Reviews-The_Cheese_Lady-Muskegon_Muskegon_County_Michigan.html
p775
aVhttp://www.tripadvisor.com/Attraction_Review-g42499-d2220666-Reviews-Lakeshore_Bike_Trail-Muskegon_Muskegon_County_Michigan.html
p776
aVhttp://www.tripadvisor.com/Attraction_Review-g42499-d214088-Reviews-Heritage_Landing-Muskegon_Muskegon_County_Michigan.html
p777
aVhttp://www.tripadvisor.com/Attraction_Review-g42499-d3347750-Reviews-Lakeshore_Museum_Center-Muskegon_Muskegon_County_Michigan.html
p778
aVhttp://www.tripadvisor.com/Attraction_Review-g42499-d2300180-Reviews-Norman_F_Kruse_Park-Muskegon_Muskegon_County_Michigan.html
p779
aVhttp://www.tripadvisor.com/Attraction_Review-g42499-d5064018-Reviews-S_S_Milwaukee_Clipper-Muskegon_Muskegon_County_Michigan.html
p780
aVhttp://www.tripadvisor.com/Attraction_Review-g42499-d6033159-Reviews-The_Lakes_Mall-Muskegon_Muskegon_County_Michigan.html
p781
aVhttp://www.tripadvisor.com/Attraction_Review-g42499-d8289619-Reviews-Downtown_Muskegon_Public_Art-Muskegon_Muskegon_County_Michigan.html
p782
aVhttp://www.tripadvisor.com/Attraction_Review-g42499-d6491658-Reviews-Muskegon_Railroad_Historical_Society-Muskegon_Muskegon_County_Michigan.html
p783
aVhttp://www.tripadvisor.com/Attraction_Review-g42499-d10801314-Reviews-Oceana_Winery-Muskegon_Muskegon_County_Michigan.html
p784
aVhttp://www.tripadvisor.com/Attraction_Review-g42499-d8562249-Reviews-Wolf_Lake_RV_Park-Muskegon_Muskegon_County_Michigan.html
p785
aVhttp://www.tripadvisor.com/Attraction_Review-g42499-d2553456-Reviews-Bubbles_Bounce-Muskegon_Muskegon_County_Michigan.html
p786
aVhttp://www.tripadvisor.com/Attraction_Review-g29180-d147218-Reviews-Aventura_Mall-Aventura_Florida.html
p787
aVhttp://www.tripadvisor.com/Attraction_Review-g29180-d4013976-Reviews-Aventura_Circle-Aventura_Florida.html
p788
aVhttp://www.tripadvisor.com/Attraction_Review-g29180-d7194016-Reviews-Don_Soffer_Exercise_Trail-Aventura_Florida.html
p789
aVhttp://www.tripadvisor.com/Attraction_Review-g29180-d3793013-Reviews-Aventura_Arts_Cultural_Center-Aventura_Florida.html
p790
aVhttp://www.tripadvisor.com/Attraction_Review-g29180-d8310699-Reviews-Canas_Tennis-Aventura_Florida.html
p791
aVhttp://www.tripadvisor.com/Attraction_Review-g60868-d107828-Reviews-John_Muir_National_Historic_Site-Martinez_California.html
p792
aVhttp://www.tripadvisor.com/Attraction_Review-g60868-d7935575-Reviews-Martinez_Regional_Shoreline-Martinez_California.html
p793
aVhttp://www.tripadvisor.com/Attraction_Review-g60868-d1194941-Reviews-California_Magic_Dinner_Theatre-Martinez_California.html
p794
aVhttp://www.tripadvisor.com/Attraction_Review-g60868-d8459398-Reviews-Rankin_Aquatic_Center-Martinez_California.html
p795
aVhttp://www.tripadvisor.com/Attraction_Review-g60868-d6480216-Reviews-Martinez_Museum-Martinez_California.html
p796
aVhttp://www.tripadvisor.com/Attraction_Review-g60868-d2473875-Reviews-Bay_Area_Adventure_Tours-Martinez_California.html
p797
aVhttp://www.tripadvisor.com/Attraction_Review-g60868-d8644736-Reviews-Armando_s-Martinez_California.html
p798
aVhttp://www.tripadvisor.com/Attraction_Review-g60868-d5841379-Reviews-Barrel_Aged_Restaurant_Cocktail_Lounge-Martinez_California.html
p799
aVhttp://www.tripadvisor.com/Attraction_Review-g60868-d8467188-Reviews-Rankin_Park-Martinez_California.html
p800
aVhttp://www.tripadvisor.com/Attraction_Review-g60868-d11755350-Reviews-St_Catherine_of_Siena_Parish-Martinez_California.html
p801
aVhttp://www.tripadvisor.com/Attraction_Review-g60868-d9729108-Reviews-Contra_Costa_County_Historical_Society-Martinez_California.html
p802
aVhttp://www.tripadvisor.com/Attraction_Review-g60868-d6533568-Reviews-Bouncefarm_LLC-Martinez_California.html
p803
aVhttp://www.tripadvisor.com/Attraction_Review-g60868-d5841836-Reviews-College_Lane-Martinez_California.html
p804
aVhttp://www.tripadvisor.com/Attraction_Review-g60868-d1478097-Reviews-Gone_Fishing_Guide_Service-Martinez_California.html
p805
aVhttp://www.tripadvisor.com/Attraction_Review-g59934-d4406913-Reviews-Lightspeed_Go_Karts_Laser_Tag-Greenfield_Wisconsin.html
p806
aVhttp://www.tripadvisor.com/Attraction_Review-g59934-d2292052-Reviews-Bounce_Realm-Greenfield_Wisconsin.html
p807
aVhttp://www.tripadvisor.com/Attraction_Review-g59934-d2552674-Reviews-Paint_n_Pottery-Greenfield_Wisconsin.html
p808
aVhttp://www.tripadvisor.com/Attraction_Review-g59934-d5836290-Reviews-68th_Street_Pub-Greenfield_Wisconsin.html
p809
aVhttp://www.tripadvisor.com/Attraction_Review-g59934-d10719684-Reviews-River_Falls_Recreation_Center-Greenfield_Wisconsin.html
p810
aVhttp://www.tripadvisor.com/Attraction_Review-g59934-d7717559-Reviews-Laser_Tag_Pro-Greenfield_Wisconsin.html
p811
aVhttp://www.tripadvisor.com/Attraction_Review-g59934-d5843687-Reviews-Mad_Dog_Saloon-Greenfield_Wisconsin.html
p812
aVhttp://www.tripadvisor.com/Attraction_Review-g59934-d12155355-Reviews-Escape_Chambers-Greenfield_Wisconsin.html
p813
aVhttp://www.tripadvisor.com/Attraction_Review-g59934-d7195803-Reviews-Massage_Envy_Spa_Greenfield-Greenfield_Wisconsin.html
p814
aVhttp://www.tripadvisor.com/Attraction_Review-g59934-d5918852-Reviews-Merry_s-Greenfield_Wisconsin.html
p815
aVhttp://www.tripadvisor.com/Attraction_Review-g59934-d5846418-Reviews-Sneakers_Sports_Club-Greenfield_Wisconsin.html
p816
aVhttp://www.tripadvisor.com/Attraction_Review-g29033-d2614510-Reviews-Barleens_Arizona_Opry-Apache_Junction_Arizona.html
p817
aVhttp://www.tripadvisor.com/Attraction_Review-g29033-d108841-Reviews-Lost_Dutchman_State_Park-Apache_Junction_Arizona.html
p818
aVhttp://www.tripadvisor.com/Attraction_Review-g29033-d116634-Reviews-Goldfield_Ghost_Town-Apache_Junction_Arizona.html
p819
aVhttp://www.tripadvisor.com/Attraction_Review-g29033-d2624665-Reviews-Superstition_Mountain_Museum-Apache_Junction_Arizona.html
p820
aVhttp://www.tripadvisor.com/Attraction_Review-g29033-d2698389-Reviews-Apache_Trail_Tours-Apache_Junction_Arizona.html
p821
aVhttp://www.tripadvisor.com/Attraction_Review-g29033-d1869880-Reviews-OK_Corral-Apache_Junction_Arizona.html
p822
aVhttp://www.tripadvisor.com/Attraction_Review-g29033-d2490813-Reviews-Silly_Mountain_Park-Apache_Junction_Arizona.html
p823
aVhttp://www.tripadvisor.com/Attraction_Review-g29033-d9759070-Reviews-Apache_Junction_Chamber_of_Commerce_and_Visitor_Center-Apache_Junction_Arizona.html
p824
aVhttp://www.tripadvisor.com/Attraction_Review-g29033-d6027852-Reviews-Superstition_Zipline-Apache_Junction_Arizona.html
p825
aVhttp://www.tripadvisor.com/Attraction_Review-g29033-d11548944-Reviews-Superstition_Trail_Rides-Apache_Junction_Arizona.html
p826
aVhttp://www.tripadvisor.com/Attraction_Review-g29033-d6700750-Reviews-The_Bluebird_Mine_and_Curio_Shop-Apache_Junction_Arizona.html
p827
aVhttp://www.tripadvisor.com/Attraction_Review-g29033-d10529979-Reviews-Stop_N_Shop_Military_Surplus_and_Museum-Apache_Junction_Arizona.html
p828
aVhttp://www.tripadvisor.com/Attraction_Review-g29033-d10306365-Reviews-Geronimo_Surrender_Monument-Apache_Junction_Arizona.html
p829
aVhttp://www.tripadvisor.com/Attraction_Review-g29033-d5843107-Reviews-Rodeo_Lounge-Apache_Junction_Arizona.html
p830
aVhttp://www.tripadvisor.com/Attraction_Review-g29033-d5835505-Reviews-The_Dog_Run_Saloon-Apache_Junction_Arizona.html
p831
aVhttp://www.tripadvisor.com/Attraction_Review-g29033-d215702-Reviews-Apache_Creek_Golf_Course-Apache_Junction_Arizona.html
p832
aVhttp://www.tripadvisor.com/Attraction_Review-g29033-d9461503-Reviews-Blue_Sky_Ranches-Apache_Junction_Arizona.html
p833
aVhttp://www.tripadvisor.com/Attraction_Review-g32729-d4353283-Reviews-Monrovia_Canyon_Park-Monrovia_California.html
p834
aVhttp://www.tripadvisor.com/Attraction_Review-g32729-d146240-Reviews-Big_Santa_Anita_Canyon-Monrovia_California.html
p835
aVhttp://www.tripadvisor.com/Attraction_Review-g32729-d11677683-Reviews-Monrovia_Friday_Night_Family_Street_Fair-Monrovia_California.html
p836
aVhttp://www.tripadvisor.com/Attraction_Review-g32729-d7942204-Reviews-Massage_Envy_Spa_Monrovia-Monrovia_California.html
p837
aVhttp://www.tripadvisor.com/Attraction_Review-g32729-d5829520-Reviews-The_Fourth_Dimension-Monrovia_California.html
p838
aVhttp://www.tripadvisor.com/Attraction_Review-g56865-d2547230-Reviews-Estero_Llano_Grande_State_Park-Weslaco_Texas.html
p839
aVhttp://www.tripadvisor.com/Attraction_Review-g56865-d3793754-Reviews-Frontera_Audubon-Weslaco_Texas.html
p840
aVhttp://www.tripadvisor.com/Attraction_Review-g56865-d3793795-Reviews-Valley_Nature_Center-Weslaco_Texas.html
p841
aVhttp://www.tripadvisor.com/Attraction_Review-g56865-d10162685-Reviews-Village_Executive_Golf_Course-Weslaco_Texas.html
p842
aVhttp://www.tripadvisor.com/Attraction_Review-g56865-d6040814-Reviews-Horseman_s_Bar_and_Grill-Weslaco_Texas.html
p843
aVhttp://www.tripadvisor.com/Attraction_Review-g56865-d5842846-Reviews-Mancave_BARber_shop-Weslaco_Texas.html
p844
aVhttp://www.tripadvisor.com/Attraction_Review-g51929-d5837002-Reviews-Aj_s_Hideaway_Bar_and_Grill-Keizer_Oregon.html
p845
aVhttp://www.tripadvisor.com/Attraction_Review-g51929-d10628166-Reviews-Volcano_Stadium-Keizer_Oregon.html
p846
aVhttp://www.tripadvisor.com/Attraction_Review-g51929-d2182233-Reviews-Town_and_Country_Bowling_Lanes-Keizer_Oregon.html
p847
aVhttp://www.tripadvisor.com/Attraction_Review-g51929-d7196941-Reviews-Massage_Envy_Spa_Keizer-Keizer_Oregon.html
p848
aVhttp://www.tripadvisor.com/Attraction_Review-g51929-d5842713-Reviews-Marios_bar-Keizer_Oregon.html
p849
aVhttp://www.tripadvisor.com/Attraction_Review-g51929-d4700181-Reviews-Marlen-Keizer_Oregon.html
p850
aVhttp://www.tripadvisor.com/Attraction_Review-g57134-d4359526-Reviews-Segway_of_Utah-Spanish_Fork_Utah.html
p851
aVhttp://www.tripadvisor.com/Attraction_Review-g57134-d2360017-Reviews-Sri_Sri_Radha_Krishna_Temple-Spanish_Fork_Utah.html
p852
aVhttp://www.tripadvisor.com/Attraction_Review-g57134-d10494984-Reviews-Spanish_Fork_River_Park-Spanish_Fork_Utah.html
p853
aVhttp://www.tripadvisor.com/Attraction_Review-g59699-d3343841-Reviews-Beckman_Mill-Beloit_Wisconsin.html
p854
aVhttp://www.tripadvisor.com/Attraction_Review-g59699-d1226012-Reviews-Beloit_Snappers-Beloit_Wisconsin.html
p855
aVhttp://www.tripadvisor.com/Attraction_Review-g59699-d10230585-Reviews-Beloit_Farmer_s_market-Beloit_Wisconsin.html
p856
aVhttp://www.tripadvisor.com/Attraction_Review-g59699-d123149-Reviews-Angel_Museum-Beloit_Wisconsin.html
p857
aVhttp://www.tripadvisor.com/Attraction_Review-g59699-d2078639-Reviews-Logan_Museum_of_Anthropology-Beloit_Wisconsin.html
p858
aVhttp://www.tripadvisor.com/Attraction_Review-g59699-d7986823-Reviews-Turtle_Island_Playground-Beloit_Wisconsin.html
p859
aVhttp://www.tripadvisor.com/Attraction_Review-g59699-d10901060-Reviews-The_Apple_Hut-Beloit_Wisconsin.html
p860
aVhttp://www.tripadvisor.com/Attraction_Review-g59699-d618108-Reviews-Pohlman_Field-Beloit_Wisconsin.html
p861
aVhttp://www.tripadvisor.com/Attraction_Review-g34543-d269300-Reviews-Beach_at_Panama_City-Panama_City_Beach_Florida.html
p862
aVhttp://www.tripadvisor.com/Attraction_Review-g34543-d606462-Reviews-Panama_City_Beach_Winery-Panama_City_Beach_Florida.html
p863
aVhttp://www.tripadvisor.com/Attraction_Review-g34543-d501605-Reviews-Water_Planet-Panama_City_Beach_Florida.html
p864
aVhttp://www.tripadvisor.com/Attraction_Review-g34543-d1102606-Reviews-Pier_Park-Panama_City_Beach_Florida.html
p865
aVhttp://www.tripadvisor.com/Attraction_Review-g34543-d143676-Reviews-Gulf_World_Marine_Park-Panama_City_Beach_Florida.html
p866
aVhttp://www.tripadvisor.com/Attraction_Review-g34543-d1474540-Reviews-Shell_Island-Panama_City_Beach_Florida.html
p867
aVhttp://www.tripadvisor.com/Attraction_Review-g34543-d631015-Reviews-Coconut_Creek_Family_Fun_Park-Panama_City_Beach_Florida.html
p868
aVhttp://www.tripadvisor.com/Attraction_Review-g34543-d674333-Reviews-Ripley_s_Believe_It_Or_Not-Panama_City_Beach_Florida.html
p869
aVhttp://www.tripadvisor.com/Attraction_Review-g34543-d143636-Reviews-Shipwreck_Island_Waterpark-Panama_City_Beach_Florida.html
p870
aVhttp://www.tripadvisor.com/Attraction_Review-g34543-d2524211-Reviews-Conservation_Park-Panama_City_Beach_Florida.html
p871
aVhttp://www.tripadvisor.com/Attraction_Review-g34543-d143635-Reviews-ZooWorld_Zoological_Conservatory-Panama_City_Beach_Florida.html
p872
aVhttp://www.tripadvisor.com/Attraction_Review-g34543-d3177246-Reviews-Russell_Fields_City_Pier-Panama_City_Beach_Florida.html
p873
aVhttp://www.tripadvisor.com/Attraction_Review-g34543-d4282086-Reviews-M_B_Miller_County_Pier-Panama_City_Beach_Florida.html
p874
aVhttp://www.tripadvisor.com/Attraction_Review-g34543-d647738-Reviews-Race_City_PCB-Panama_City_Beach_Florida.html
p875
aVhttp://www.tripadvisor.com/Attraction_Review-g34543-d10290820-Reviews-Frank_Brown_Park-Panama_City_Beach_Florida.html
p876
aVhttp://www.tripadvisor.com/Attraction_Review-g34543-d6650595-Reviews-Rick_Seltzer_Park-Panama_City_Beach_Florida.html
p877
aVhttp://www.tripadvisor.com/Attraction_Review-g34543-d3372630-Reviews-Slingshot_Indy_Speedway-Panama_City_Beach_Florida.html
p878
aVhttp://www.tripadvisor.com/Attraction_Review-g34543-d10509324-Reviews-Nivol_Brewery-Panama_City_Beach_Florida.html
p879
aVhttp://www.tripadvisor.com/Attraction_Review-g34543-d3929340-Reviews-Panama_City_Beach_Library-Panama_City_Beach_Florida.html
p880
aVhttp://www.tripadvisor.com/Attraction_Review-g34543-d2223779-Reviews-Gator_Country_Alligator_Park-Panama_City_Beach_Florida.html
p881
a.